(dp0
S'testset'
p1
S'black_no_irrelevant'
p2
sS'results'
p3
(dp4
F0.5
(dp5
S'ide_dec'
p6
(dp7
S'recalls'
p8
(lp9
F0.9473684210526315
aF0.9210526315789473
aF0.868421052631579
aF0.868421052631579
aF0.9473684210526315
aF0.9473684210526315
aF0.8947368421052632
aF0.868421052631579
aF0.8947368421052632
aF0.8947368421052632
aF0.9210526315789473
aF0.9210526315789473
aF0.8421052631578947
aF0.9210526315789473
aF0.8947368421052632
aF0.8947368421052632
aF0.868421052631579
aF0.9473684210526315
aF0.9473684210526315
aF0.8947368421052632
aF0.8421052631578947
aF0.9210526315789473
aF0.868421052631579
aF0.9210526315789473
aF0.868421052631579
asS'recall'
p10
F0.9010526315789474
ssS'rocchio'
p11
(dp12
g8
(lp13
F0.9473684210526315
aF0.9210526315789473
aF0.868421052631579
aF0.868421052631579
aF0.9473684210526315
aF0.9473684210526315
aF0.8947368421052632
aF0.868421052631579
aF0.8947368421052632
aF0.8947368421052632
aF0.9210526315789473
aF0.9210526315789473
aF0.8421052631578947
aF0.9210526315789473
aF0.8947368421052632
aF0.8947368421052632
aF0.868421052631579
aF0.9473684210526315
aF0.9473684210526315
aF0.8947368421052632
aF0.8421052631578947
aF0.9210526315789473
aF0.868421052631579
aF0.9210526315789473
aF0.868421052631579
asg10
F0.9010526315789474
ssS'ide_regular'
p14
(dp15
g8
(lp16
F0.9473684210526315
aF0.9210526315789473
aF0.868421052631579
aF0.868421052631579
aF0.9473684210526315
aF0.9473684210526315
aF0.8947368421052632
aF0.868421052631579
aF0.8947368421052632
aF0.8947368421052632
aF0.9210526315789473
aF0.9210526315789473
aF0.8421052631578947
aF0.9210526315789473
aF0.8947368421052632
aF0.8947368421052632
aF0.868421052631579
aF0.9473684210526315
aF0.9473684210526315
aF0.8947368421052632
aF0.8421052631578947
aF0.9210526315789473
aF0.868421052631579
aF0.9210526315789473
aF0.868421052631579
asg10
F0.9010526315789474
sssF0.56
(dp17
g6
(dp18
g8
(lp19
F0.9393939393939394
aF0.9090909090909091
aF0.9090909090909091
aF0.8787878787878788
aF0.9090909090909091
aF0.8787878787878788
aF0.9393939393939394
aF0.9393939393939394
aF0.9696969696969697
aF0.9393939393939394
aF0.8787878787878788
aF0.8787878787878788
aF0.9393939393939394
aF0.9090909090909091
aF0.9696969696969697
aF0.8787878787878788
aF0.9393939393939394
aF0.8787878787878788
aF0.9393939393939394
aF0.8787878787878788
aF0.9090909090909091
aF0.9090909090909091
aF0.8787878787878788
aF0.9090909090909091
aF0.9090909090909091
asg10
F0.9127272727272728
ssg11
(dp20
g8
(lp21
F0.9393939393939394
aF0.9090909090909091
aF0.9090909090909091
aF0.8787878787878788
aF0.9090909090909091
aF0.8787878787878788
aF0.9393939393939394
aF0.9393939393939394
aF0.9696969696969697
aF0.9393939393939394
aF0.8787878787878788
aF0.8787878787878788
aF0.9393939393939394
aF0.9090909090909091
aF0.9696969696969697
aF0.8787878787878788
aF0.9393939393939394
aF0.8787878787878788
aF0.9393939393939394
aF0.8787878787878788
aF0.9090909090909091
aF0.9090909090909091
aF0.8787878787878788
aF0.9090909090909091
aF0.9090909090909091
asg10
F0.9127272727272728
ssg14
(dp22
g8
(lp23
F0.9393939393939394
aF0.9090909090909091
aF0.9090909090909091
aF0.8787878787878788
aF0.9090909090909091
aF0.8787878787878788
aF0.9393939393939394
aF0.9393939393939394
aF0.9696969696969697
aF0.9393939393939394
aF0.8787878787878788
aF0.8787878787878788
aF0.9393939393939394
aF0.9090909090909091
aF0.9696969696969697
aF0.8787878787878788
aF0.9393939393939394
aF0.8787878787878788
aF0.9393939393939394
aF0.8787878787878788
aF0.9090909090909091
aF0.9090909090909091
aF0.8787878787878788
aF0.9090909090909091
aF0.9090909090909091
asg10
F0.9127272727272728
sssF0.04
(dp24
g6
(dp25
g8
(lp26
F0.9027777777777778
aF0.9027777777777778
aF0.0
aF0.9027777777777778
aF0.4861111111111111
aF0.9027777777777778
aF0.9166666666666666
aF0.2222222222222222
aF0.9166666666666666
aF0.9166666666666666
aF0.3888888888888889
aF0.4166666666666667
aF0.9305555555555556
aF0.8472222222222222
aF0.9027777777777778
aF0.8888888888888888
aF0.9027777777777778
aF0.9027777777777778
aF0.9027777777777778
aF0.0
aF0.4583333333333333
aF0.0
aF0.0
aF0.4444444444444444
aF0.9027777777777778
asg10
F0.6383333333333335
ssg11
(dp27
g8
(lp28
F0.9027777777777778
aF0.9027777777777778
aF0.0
aF0.9027777777777778
aF0.4861111111111111
aF0.9027777777777778
aF0.9166666666666666
aF0.2222222222222222
aF0.9166666666666666
aF0.9166666666666666
aF0.3888888888888889
aF0.4166666666666667
aF0.9305555555555556
aF0.8472222222222222
aF0.9027777777777778
aF0.8888888888888888
aF0.9027777777777778
aF0.9027777777777778
aF0.9027777777777778
aF0.0
aF0.4583333333333333
aF0.0
aF0.0
aF0.4444444444444444
aF0.9027777777777778
asg10
F0.6383333333333335
ssg14
(dp29
g8
(lp30
F0.9027777777777778
aF0.9027777777777778
aF0.0
aF0.9027777777777778
aF0.4861111111111111
aF0.9027777777777778
aF0.9166666666666666
aF0.2222222222222222
aF0.9166666666666666
aF0.9166666666666666
aF0.3888888888888889
aF0.4166666666666667
aF0.9305555555555556
aF0.8472222222222222
aF0.9027777777777778
aF0.8888888888888888
aF0.9027777777777778
aF0.9027777777777778
aF0.9027777777777778
aF0.0
aF0.4583333333333333
aF0.0
aF0.0
aF0.4444444444444444
aF0.9027777777777778
asg10
F0.6383333333333335
sssF0.22
(dp31
g6
(dp32
g8
(lp33
F0.8983050847457628
aF0.9152542372881356
aF0.9152542372881356
aF0.8983050847457628
aF0.9152542372881356
aF0.9152542372881356
aF0.9322033898305084
aF0.8983050847457628
aF0.8983050847457628
aF0.8813559322033898
aF0.8813559322033898
aF0.8813559322033898
aF0.9152542372881356
aF0.8813559322033898
aF0.9322033898305084
aF0.8813559322033898
aF0.9152542372881356
aF0.9152542372881356
aF0.8813559322033898
aF0.9322033898305084
aF0.8983050847457628
aF0.9491525423728814
aF0.9322033898305084
aF0.9152542372881356
aF0.8983050847457628
asg10
F0.9071186440677964
ssg11
(dp34
g8
(lp35
F0.8983050847457628
aF0.9152542372881356
aF0.9152542372881356
aF0.8983050847457628
aF0.9152542372881356
aF0.9152542372881356
aF0.9322033898305084
aF0.8983050847457628
aF0.8983050847457628
aF0.8813559322033898
aF0.8813559322033898
aF0.8813559322033898
aF0.9152542372881356
aF0.8813559322033898
aF0.9322033898305084
aF0.8813559322033898
aF0.9152542372881356
aF0.9152542372881356
aF0.8813559322033898
aF0.9322033898305084
aF0.8983050847457628
aF0.9491525423728814
aF0.9322033898305084
aF0.9152542372881356
aF0.8983050847457628
asg10
F0.9071186440677964
ssg14
(dp36
g8
(lp37
F0.8983050847457628
aF0.9152542372881356
aF0.9152542372881356
aF0.8983050847457628
aF0.9152542372881356
aF0.9152542372881356
aF0.9322033898305084
aF0.8983050847457628
aF0.8983050847457628
aF0.8813559322033898
aF0.8813559322033898
aF0.8813559322033898
aF0.9152542372881356
aF0.8813559322033898
aF0.9322033898305084
aF0.8813559322033898
aF0.9152542372881356
aF0.9152542372881356
aF0.8813559322033898
aF0.9322033898305084
aF0.8983050847457628
aF0.9491525423728814
aF0.9322033898305084
aF0.9152542372881356
aF0.8983050847457628
asg10
F0.9071186440677964
sssF0.36
(dp38
g6
(dp39
g8
(lp40
F0.9375
aF0.9166666666666666
aF0.9375
aF0.875
aF0.875
aF0.8958333333333334
aF0.9166666666666666
aF0.8958333333333334
aF0.8958333333333334
aF0.9166666666666666
aF0.875
aF0.9375
aF0.9166666666666666
aF0.8958333333333334
aF0.9166666666666666
aF0.9166666666666666
aF0.9166666666666666
aF0.8958333333333334
aF0.8958333333333334
aF0.9375
aF0.9583333333333334
aF0.9166666666666666
aF0.9375
aF0.875
aF0.9375
asg10
F0.9116666666666664
ssg11
(dp41
g8
(lp42
F0.9375
aF0.9166666666666666
aF0.9375
aF0.875
aF0.875
aF0.8958333333333334
aF0.9166666666666666
aF0.8958333333333334
aF0.8958333333333334
aF0.9166666666666666
aF0.875
aF0.9375
aF0.9166666666666666
aF0.8958333333333334
aF0.9166666666666666
aF0.9166666666666666
aF0.9166666666666666
aF0.8958333333333334
aF0.8958333333333334
aF0.9375
aF0.9583333333333334
aF0.9166666666666666
aF0.9375
aF0.875
aF0.9375
asg10
F0.9116666666666664
ssg14
(dp43
g8
(lp44
F0.9375
aF0.9166666666666666
aF0.9375
aF0.875
aF0.875
aF0.8958333333333334
aF0.9166666666666666
aF0.8958333333333334
aF0.8958333333333334
aF0.9166666666666666
aF0.875
aF0.9375
aF0.9166666666666666
aF0.8958333333333334
aF0.9166666666666666
aF0.9166666666666666
aF0.9166666666666666
aF0.8958333333333334
aF0.8958333333333334
aF0.9375
aF0.9583333333333334
aF0.9166666666666666
aF0.9375
aF0.875
aF0.9375
asg10
F0.9116666666666664
sssF0.38
(dp45
g6
(dp46
g8
(lp47
F0.8936170212765957
aF0.8723404255319149
aF0.9361702127659575
aF0.8936170212765957
aF0.8723404255319149
aF0.8936170212765957
aF0.9361702127659575
aF0.8936170212765957
aF0.8723404255319149
aF0.9148936170212766
aF0.8936170212765957
aF0.9148936170212766
aF0.9148936170212766
aF0.8936170212765957
aF0.8936170212765957
aF0.8936170212765957
aF0.8723404255319149
aF0.9148936170212766
aF0.8936170212765957
aF0.8936170212765957
aF0.8723404255319149
aF0.8723404255319149
aF0.8936170212765957
aF0.8936170212765957
aF0.8936170212765957
asg10
F0.8953191489361706
ssg11
(dp48
g8
(lp49
F0.8936170212765957
aF0.8723404255319149
aF0.9361702127659575
aF0.8936170212765957
aF0.8723404255319149
aF0.8936170212765957
aF0.9361702127659575
aF0.8936170212765957
aF0.8723404255319149
aF0.9148936170212766
aF0.8936170212765957
aF0.9148936170212766
aF0.9148936170212766
aF0.8936170212765957
aF0.8936170212765957
aF0.8936170212765957
aF0.8723404255319149
aF0.9148936170212766
aF0.8936170212765957
aF0.8936170212765957
aF0.8723404255319149
aF0.8723404255319149
aF0.8936170212765957
aF0.8936170212765957
aF0.8936170212765957
asg10
F0.8953191489361706
ssg14
(dp50
g8
(lp51
F0.8936170212765957
aF0.8723404255319149
aF0.9361702127659575
aF0.8936170212765957
aF0.8723404255319149
aF0.8936170212765957
aF0.9361702127659575
aF0.8936170212765957
aF0.8723404255319149
aF0.9148936170212766
aF0.8936170212765957
aF0.9148936170212766
aF0.9148936170212766
aF0.8936170212765957
aF0.8936170212765957
aF0.8936170212765957
aF0.8723404255319149
aF0.9148936170212766
aF0.8936170212765957
aF0.8936170212765957
aF0.8723404255319149
aF0.8723404255319149
aF0.8936170212765957
aF0.8936170212765957
aF0.8936170212765957
asg10
F0.8953191489361706
sssF0.12
(dp52
g6
(dp53
g8
(lp54
F0.8939393939393939
aF0.9090909090909091
aF0.9242424242424242
aF0.9090909090909091
aF0.8939393939393939
aF0.5303030303030303
aF0.9393939393939394
aF0.8939393939393939
aF0.8939393939393939
aF0.9242424242424242
aF0.8939393939393939
aF0.9242424242424242
aF0.9242424242424242
aF0.5151515151515151
aF0.8939393939393939
aF0.8939393939393939
aF0.8939393939393939
aF0.9090909090909091
aF0.8939393939393939
aF0.9090909090909091
aF0.9393939393939394
aF0.9090909090909091
aF0.9393939393939394
aF0.8939393939393939
aF0.9090909090909091
asg10
F0.8781818181818184
ssg11
(dp55
g8
(lp56
F0.8939393939393939
aF0.9090909090909091
aF0.9242424242424242
aF0.9090909090909091
aF0.8939393939393939
aF0.5303030303030303
aF0.9393939393939394
aF0.8939393939393939
aF0.8939393939393939
aF0.9242424242424242
aF0.8939393939393939
aF0.9242424242424242
aF0.9242424242424242
aF0.5151515151515151
aF0.8939393939393939
aF0.8939393939393939
aF0.8939393939393939
aF0.9090909090909091
aF0.8939393939393939
aF0.9090909090909091
aF0.9393939393939394
aF0.9090909090909091
aF0.9393939393939394
aF0.8939393939393939
aF0.9090909090909091
asg10
F0.8781818181818184
ssg14
(dp57
g8
(lp58
F0.8939393939393939
aF0.9090909090909091
aF0.9242424242424242
aF0.9090909090909091
aF0.8939393939393939
aF0.5303030303030303
aF0.9393939393939394
aF0.8939393939393939
aF0.8939393939393939
aF0.9242424242424242
aF0.8939393939393939
aF0.9242424242424242
aF0.9242424242424242
aF0.5151515151515151
aF0.8939393939393939
aF0.8939393939393939
aF0.8939393939393939
aF0.9090909090909091
aF0.8939393939393939
aF0.9090909090909091
aF0.9393939393939394
aF0.9090909090909091
aF0.9393939393939394
aF0.8939393939393939
aF0.9090909090909091
asg10
F0.8781818181818184
sssF0.02
(dp59
g6
(dp60
g8
(lp61
F0.0
aF0.40540540540540543
aF0.0
aF0.0
aF0.20270270270270271
aF0.0
aF0.0
aF0.0
aF0.0
aF0.0
aF0.0
aF0.0
aF0.20270270270270271
aF0.918918918918919
aF0.0
aF0.40540540540540543
aF0.3783783783783784
aF0.0
aF0.0
aF0.0
aF0.0
aF0.35135135135135137
aF0.7837837837837838
aF0.0
aF0.7162162162162162
asg10
F0.1745945945945946
ssg11
(dp62
g8
(lp63
F0.0
aF0.40540540540540543
aF0.0
aF0.0
aF0.20270270270270271
aF0.0
aF0.0
aF0.0
aF0.0
aF0.0
aF0.0
aF0.0
aF0.20270270270270271
aF0.918918918918919
aF0.0
aF0.40540540540540543
aF0.3783783783783784
aF0.0
aF0.0
aF0.0
aF0.0
aF0.35135135135135137
aF0.7837837837837838
aF0.0
aF0.7162162162162162
asg10
F0.1745945945945946
ssg14
(dp64
g8
(lp65
F0.0
aF0.40540540540540543
aF0.0
aF0.0
aF0.20270270270270271
aF0.0
aF0.0
aF0.0
aF0.0
aF0.0
aF0.0
aF0.0
aF0.20270270270270271
aF0.918918918918919
aF0.0
aF0.40540540540540543
aF0.3783783783783784
aF0.0
aF0.0
aF0.0
aF0.0
aF0.35135135135135137
aF0.7837837837837838
aF0.0
aF0.7162162162162162
asg10
F0.1745945945945946
sssF0.68
(dp66
g6
(dp67
g8
(lp68
F0.9166666666666666
aF0.9166666666666666
aF0.9166666666666666
aF0.9166666666666666
aF0.9166666666666666
aF0.9166666666666666
aF0.875
aF0.9583333333333334
aF0.8333333333333334
aF1.0
aF0.9166666666666666
aF1.0
aF0.9583333333333334
aF0.8333333333333334
aF0.875
aF0.7916666666666666
aF0.875
aF1.0
aF0.9166666666666666
aF0.9166666666666666
aF0.875
aF0.9583333333333334
aF0.875
aF0.875
aF0.875
asg10
F0.9083333333333333
ssg11
(dp69
g8
(lp70
F0.9166666666666666
aF0.9166666666666666
aF0.9166666666666666
aF0.9166666666666666
aF0.9166666666666666
aF0.9166666666666666
aF0.875
aF0.9583333333333334
aF0.8333333333333334
aF1.0
aF0.9166666666666666
aF1.0
aF0.9583333333333334
aF0.8333333333333334
aF0.875
aF0.7916666666666666
aF0.875
aF1.0
aF0.9166666666666666
aF0.9166666666666666
aF0.875
aF0.9583333333333334
aF0.875
aF0.875
aF0.875
asg10
F0.9083333333333333
ssg14
(dp71
g8
(lp72
F0.9166666666666666
aF0.9166666666666666
aF0.9166666666666666
aF0.9166666666666666
aF0.9166666666666666
aF0.9166666666666666
aF0.875
aF0.9583333333333334
aF0.8333333333333334
aF1.0
aF0.9166666666666666
aF1.0
aF0.9583333333333334
aF0.8333333333333334
aF0.875
aF0.7916666666666666
aF0.875
aF1.0
aF0.9166666666666666
aF0.9166666666666666
aF0.875
aF0.9583333333333334
aF0.875
aF0.875
aF0.875
asg10
F0.9083333333333333
sssF0.58
(dp73
g6
(dp74
g8
(lp75
F0.875
aF0.8125
aF0.90625
aF0.9375
aF0.875
aF0.875
aF0.9375
aF0.9375
aF0.9375
aF0.90625
aF0.875
aF0.8125
aF0.84375
aF0.90625
aF0.90625
aF0.84375
aF0.875
aF0.9375
aF0.9375
aF0.90625
aF0.90625
aF0.9375
aF0.90625
aF0.90625
aF0.90625
asg10
F0.89625
ssg11
(dp76
g8
(lp77
F0.875
aF0.8125
aF0.90625
aF0.9375
aF0.875
aF0.875
aF0.9375
aF0.9375
aF0.9375
aF0.90625
aF0.875
aF0.8125
aF0.84375
aF0.90625
aF0.90625
aF0.84375
aF0.875
aF0.9375
aF0.9375
aF0.90625
aF0.90625
aF0.9375
aF0.90625
aF0.90625
aF0.90625
asg10
F0.89625
ssg14
(dp78
g8
(lp79
F0.875
aF0.8125
aF0.90625
aF0.9375
aF0.875
aF0.875
aF0.9375
aF0.9375
aF0.9375
aF0.90625
aF0.875
aF0.8125
aF0.84375
aF0.90625
aF0.90625
aF0.84375
aF0.875
aF0.9375
aF0.9375
aF0.90625
aF0.90625
aF0.9375
aF0.90625
aF0.90625
aF0.90625
asg10
F0.89625
sssF0.24
(dp80
g6
(dp81
g8
(lp82
F0.8947368421052632
aF0.9122807017543859
aF0.9298245614035088
aF0.8771929824561403
aF0.8947368421052632
aF0.45614035087719296
aF0.8947368421052632
aF0.8947368421052632
aF0.9473684210526315
aF0.9122807017543859
aF0.9473684210526315
aF0.8947368421052632
aF0.8947368421052632
aF0.8771929824561403
aF0.8947368421052632
aF0.9298245614035088
aF0.9122807017543859
aF0.8771929824561403
aF0.9122807017543859
aF0.9298245614035088
aF0.8947368421052632
aF0.9122807017543859
aF0.9122807017543859
aF0.9122807017543859
aF0.8947368421052632
asg10
F0.8884210526315792
ssg11
(dp83
g8
(lp84
F0.8947368421052632
aF0.9122807017543859
aF0.9298245614035088
aF0.8771929824561403
aF0.8947368421052632
aF0.45614035087719296
aF0.8947368421052632
aF0.8947368421052632
aF0.9473684210526315
aF0.9122807017543859
aF0.9473684210526315
aF0.8947368421052632
aF0.8947368421052632
aF0.8771929824561403
aF0.8947368421052632
aF0.9298245614035088
aF0.9122807017543859
aF0.8771929824561403
aF0.9122807017543859
aF0.9298245614035088
aF0.8947368421052632
aF0.9122807017543859
aF0.9122807017543859
aF0.9122807017543859
aF0.8947368421052632
asg10
F0.8884210526315792
ssg14
(dp85
g8
(lp86
F0.8947368421052632
aF0.9122807017543859
aF0.9298245614035088
aF0.8771929824561403
aF0.8947368421052632
aF0.45614035087719296
aF0.8947368421052632
aF0.8947368421052632
aF0.9473684210526315
aF0.9122807017543859
aF0.9473684210526315
aF0.8947368421052632
aF0.8947368421052632
aF0.8771929824561403
aF0.8947368421052632
aF0.9298245614035088
aF0.9122807017543859
aF0.8771929824561403
aF0.9122807017543859
aF0.9298245614035088
aF0.8947368421052632
aF0.9122807017543859
aF0.9122807017543859
aF0.9122807017543859
aF0.8947368421052632
asg10
F0.8884210526315792
sssF0.26
(dp87
g6
(dp88
g8
(lp89
F0.9285714285714286
aF0.9107142857142857
aF0.9107142857142857
aF0.875
aF0.8928571428571429
aF0.8928571428571429
aF0.9285714285714286
aF0.9107142857142857
aF0.9107142857142857
aF0.9107142857142857
aF0.8928571428571429
aF0.8928571428571429
aF0.9107142857142857
aF0.8928571428571429
aF0.8928571428571429
aF0.9285714285714286
aF0.9107142857142857
aF0.9107142857142857
aF0.9107142857142857
aF0.9107142857142857
aF0.9285714285714286
aF0.9107142857142857
aF0.875
aF0.9285714285714286
aF0.9285714285714286
asg10
F0.9078571428571426
ssg11
(dp90
g8
(lp91
F0.9285714285714286
aF0.9107142857142857
aF0.9107142857142857
aF0.875
aF0.8928571428571429
aF0.8928571428571429
aF0.9285714285714286
aF0.9107142857142857
aF0.9107142857142857
aF0.9107142857142857
aF0.8928571428571429
aF0.8928571428571429
aF0.9107142857142857
aF0.8928571428571429
aF0.8928571428571429
aF0.9285714285714286
aF0.9107142857142857
aF0.9107142857142857
aF0.9107142857142857
aF0.9107142857142857
aF0.9285714285714286
aF0.9107142857142857
aF0.875
aF0.9285714285714286
aF0.9285714285714286
asg10
F0.9078571428571426
ssg14
(dp92
g8
(lp93
F0.9285714285714286
aF0.9107142857142857
aF0.9107142857142857
aF0.875
aF0.8928571428571429
aF0.8928571428571429
aF0.9285714285714286
aF0.9107142857142857
aF0.9107142857142857
aF0.9107142857142857
aF0.8928571428571429
aF0.8928571428571429
aF0.9107142857142857
aF0.8928571428571429
aF0.8928571428571429
aF0.9285714285714286
aF0.9107142857142857
aF0.9107142857142857
aF0.9107142857142857
aF0.9107142857142857
aF0.9285714285714286
aF0.9107142857142857
aF0.875
aF0.9285714285714286
aF0.9285714285714286
asg10
F0.9078571428571426
sssF0.08
(dp94
g6
(dp95
g8
(lp96
F0.927536231884058
aF0.9130434782608695
aF0.8985507246376812
aF0.9130434782608695
aF0.9130434782608695
aF0.8985507246376812
aF0.9130434782608695
aF0.8985507246376812
aF0.9130434782608695
aF0.9130434782608695
aF0.8985507246376812
aF0.8405797101449275
aF0.8985507246376812
aF0.8985507246376812
aF0.8985507246376812
aF0.8985507246376812
aF0.9130434782608695
aF0.8985507246376812
aF0.8985507246376812
aF0.8985507246376812
aF0.8985507246376812
aF0.8985507246376812
aF0.9130434782608695
aF0.8985507246376812
aF0.8985507246376812
asg10
F0.9020289855072461
ssg11
(dp97
g8
(lp98
F0.927536231884058
aF0.9130434782608695
aF0.8985507246376812
aF0.9130434782608695
aF0.9130434782608695
aF0.8985507246376812
aF0.9130434782608695
aF0.8985507246376812
aF0.9130434782608695
aF0.9130434782608695
aF0.8985507246376812
aF0.8405797101449275
aF0.8985507246376812
aF0.8985507246376812
aF0.8985507246376812
aF0.8985507246376812
aF0.9130434782608695
aF0.8985507246376812
aF0.8985507246376812
aF0.8985507246376812
aF0.8985507246376812
aF0.8985507246376812
aF0.9130434782608695
aF0.8985507246376812
aF0.8985507246376812
asg10
F0.9020289855072461
ssg14
(dp99
g8
(lp100
F0.927536231884058
aF0.9130434782608695
aF0.8985507246376812
aF0.9130434782608695
aF0.9130434782608695
aF0.8985507246376812
aF0.9130434782608695
aF0.8985507246376812
aF0.9130434782608695
aF0.9130434782608695
aF0.8985507246376812
aF0.8405797101449275
aF0.8985507246376812
aF0.8985507246376812
aF0.8985507246376812
aF0.8985507246376812
aF0.9130434782608695
aF0.8985507246376812
aF0.8985507246376812
aF0.8985507246376812
aF0.8985507246376812
aF0.8985507246376812
aF0.9130434782608695
aF0.8985507246376812
aF0.8985507246376812
asg10
F0.9020289855072461
sssF0.06
(dp101
g6
(dp102
g8
(lp103
F0.9295774647887324
aF0.5352112676056338
aF0.9014084507042254
aF0.9014084507042254
aF0.352112676056338
aF0.4507042253521127
aF0.9014084507042254
aF0.4225352112676056
aF0.9014084507042254
aF0.9014084507042254
aF0.9014084507042254
aF0.5774647887323944
aF0.0
aF0.9154929577464789
aF0.9014084507042254
aF0.36619718309859156
aF0.9014084507042254
aF0.9014084507042254
aF0.9014084507042254
aF0.9014084507042254
aF0.9014084507042254
aF0.0
aF0.9014084507042254
aF0.9014084507042254
aF0.9154929577464789
asg10
F0.7233802816901409
ssg11
(dp104
g8
(lp105
F0.9295774647887324
aF0.5352112676056338
aF0.9014084507042254
aF0.9014084507042254
aF0.352112676056338
aF0.4507042253521127
aF0.9014084507042254
aF0.4225352112676056
aF0.9014084507042254
aF0.9014084507042254
aF0.9014084507042254
aF0.5774647887323944
aF0.0
aF0.9154929577464789
aF0.9014084507042254
aF0.36619718309859156
aF0.9014084507042254
aF0.9014084507042254
aF0.9014084507042254
aF0.9014084507042254
aF0.9014084507042254
aF0.0
aF0.9014084507042254
aF0.9014084507042254
aF0.9154929577464789
asg10
F0.7233802816901409
ssg14
(dp106
g8
(lp107
F0.9295774647887324
aF0.5352112676056338
aF0.9014084507042254
aF0.9014084507042254
aF0.352112676056338
aF0.4507042253521127
aF0.9014084507042254
aF0.4225352112676056
aF0.9014084507042254
aF0.9014084507042254
aF0.9014084507042254
aF0.5774647887323944
aF0.0
aF0.9154929577464789
aF0.9014084507042254
aF0.36619718309859156
aF0.9014084507042254
aF0.9014084507042254
aF0.9014084507042254
aF0.9014084507042254
aF0.9014084507042254
aF0.0
aF0.9014084507042254
aF0.9014084507042254
aF0.9154929577464789
asg10
F0.7233802816901409
sssF0.16
(dp108
g6
(dp109
g8
(lp110
F0.8888888888888888
aF0.8888888888888888
aF0.9047619047619048
aF0.8888888888888888
aF0.8888888888888888
aF0.8888888888888888
aF0.9047619047619048
aF0.8888888888888888
aF0.9047619047619048
aF0.9206349206349206
aF0.8888888888888888
aF0.9365079365079365
aF0.9047619047619048
aF0.8888888888888888
aF0.9047619047619048
aF0.9206349206349206
aF0.9047619047619048
aF0.9047619047619048
aF0.9047619047619048
aF0.8888888888888888
aF0.9047619047619048
aF0.9047619047619048
aF0.9047619047619048
aF0.9047619047619048
aF0.9365079365079365
asg10
F0.902857142857143
ssg11
(dp111
g8
(lp112
F0.8888888888888888
aF0.8888888888888888
aF0.9047619047619048
aF0.8888888888888888
aF0.8888888888888888
aF0.8888888888888888
aF0.9047619047619048
aF0.8888888888888888
aF0.9047619047619048
aF0.9206349206349206
aF0.8888888888888888
aF0.9365079365079365
aF0.9047619047619048
aF0.8888888888888888
aF0.9047619047619048
aF0.9206349206349206
aF0.9047619047619048
aF0.9047619047619048
aF0.9047619047619048
aF0.8888888888888888
aF0.9047619047619048
aF0.9047619047619048
aF0.9047619047619048
aF0.9047619047619048
aF0.9365079365079365
asg10
F0.902857142857143
ssg14
(dp113
g8
(lp114
F0.8888888888888888
aF0.8888888888888888
aF0.9047619047619048
aF0.8888888888888888
aF0.8888888888888888
aF0.8888888888888888
aF0.9047619047619048
aF0.8888888888888888
aF0.9047619047619048
aF0.9206349206349206
aF0.8888888888888888
aF0.9365079365079365
aF0.9047619047619048
aF0.8888888888888888
aF0.9047619047619048
aF0.9206349206349206
aF0.9047619047619048
aF0.9047619047619048
aF0.9047619047619048
aF0.8888888888888888
aF0.9047619047619048
aF0.9047619047619048
aF0.9047619047619048
aF0.9047619047619048
aF0.9365079365079365
asg10
F0.902857142857143
sssF0.42
(dp115
g6
(dp116
g8
(lp117
F0.9090909090909091
aF0.8636363636363636
aF0.9090909090909091
aF0.8863636363636364
aF0.9318181818181818
aF0.9318181818181818
aF0.9090909090909091
aF0.8863636363636364
aF0.8636363636363636
aF0.8636363636363636
aF0.8636363636363636
aF0.8863636363636364
aF0.8863636363636364
aF0.9090909090909091
aF0.8863636363636364
aF0.8863636363636364
aF0.9545454545454546
aF0.9090909090909091
aF0.8636363636363636
aF0.8863636363636364
aF0.8636363636363636
aF0.9545454545454546
aF0.9090909090909091
aF0.9090909090909091
aF0.9318181818181818
asg10
F0.8981818181818183
ssg11
(dp118
g8
(lp119
F0.9090909090909091
aF0.8636363636363636
aF0.9090909090909091
aF0.8863636363636364
aF0.9318181818181818
aF0.9318181818181818
aF0.9090909090909091
aF0.8863636363636364
aF0.8636363636363636
aF0.8636363636363636
aF0.8636363636363636
aF0.8863636363636364
aF0.8863636363636364
aF0.9090909090909091
aF0.8863636363636364
aF0.8863636363636364
aF0.9545454545454546
aF0.9090909090909091
aF0.8636363636363636
aF0.8863636363636364
aF0.8636363636363636
aF0.9545454545454546
aF0.9090909090909091
aF0.9090909090909091
aF0.9318181818181818
asg10
F0.8981818181818183
ssg14
(dp120
g8
(lp121
F0.9090909090909091
aF0.8636363636363636
aF0.9090909090909091
aF0.8863636363636364
aF0.9318181818181818
aF0.9318181818181818
aF0.9090909090909091
aF0.8863636363636364
aF0.8636363636363636
aF0.8636363636363636
aF0.8636363636363636
aF0.8863636363636364
aF0.8863636363636364
aF0.9090909090909091
aF0.8863636363636364
aF0.8863636363636364
aF0.9545454545454546
aF0.9090909090909091
aF0.8636363636363636
aF0.8863636363636364
aF0.8636363636363636
aF0.9545454545454546
aF0.9090909090909091
aF0.9090909090909091
aF0.9318181818181818
asg10
F0.8981818181818183
sssF0.44
(dp122
g6
(dp123
g8
(lp124
F0.9047619047619048
aF0.9047619047619048
aF0.8571428571428571
aF0.8571428571428571
aF0.9047619047619048
aF0.9047619047619048
aF0.9523809523809523
aF0.9047619047619048
aF0.9285714285714286
aF0.9047619047619048
aF0.9761904761904762
aF0.9047619047619048
aF0.9285714285714286
aF0.9285714285714286
aF0.9047619047619048
aF0.9523809523809523
aF0.9761904761904762
aF0.9047619047619048
aF0.8809523809523809
aF0.9523809523809523
aF0.8571428571428571
aF0.9285714285714286
aF0.9047619047619048
aF0.9285714285714286
aF0.9047619047619048
asg10
F0.9142857142857143
ssg11
(dp125
g8
(lp126
F0.9047619047619048
aF0.9047619047619048
aF0.8571428571428571
aF0.8571428571428571
aF0.9047619047619048
aF0.9047619047619048
aF0.9523809523809523
aF0.9047619047619048
aF0.9285714285714286
aF0.9047619047619048
aF0.9761904761904762
aF0.9047619047619048
aF0.9285714285714286
aF0.9285714285714286
aF0.9047619047619048
aF0.9523809523809523
aF0.9761904761904762
aF0.9047619047619048
aF0.8809523809523809
aF0.9523809523809523
aF0.8571428571428571
aF0.9285714285714286
aF0.9047619047619048
aF0.9285714285714286
aF0.9047619047619048
asg10
F0.9142857142857143
ssg14
(dp127
g8
(lp128
F0.9047619047619048
aF0.9047619047619048
aF0.8571428571428571
aF0.8571428571428571
aF0.9047619047619048
aF0.9047619047619048
aF0.9523809523809523
aF0.9047619047619048
aF0.9285714285714286
aF0.9047619047619048
aF0.9761904761904762
aF0.9047619047619048
aF0.9285714285714286
aF0.9285714285714286
aF0.9047619047619048
aF0.9523809523809523
aF0.9761904761904762
aF0.9047619047619048
aF0.8809523809523809
aF0.9523809523809523
aF0.8571428571428571
aF0.9285714285714286
aF0.9047619047619048
aF0.9285714285714286
aF0.9047619047619048
asg10
F0.9142857142857143
sssF0.18
(dp129
g6
(dp130
g8
(lp131
F0.9032258064516129
aF0.9032258064516129
aF0.22580645161290322
aF0.9032258064516129
aF0.8870967741935484
aF0.9193548387096774
aF0.9193548387096774
aF0.9032258064516129
aF0.9032258064516129
aF0.9032258064516129
aF0.9032258064516129
aF0.9354838709677419
aF0.8870967741935484
aF0.9032258064516129
aF0.9193548387096774
aF0.9032258064516129
aF0.9354838709677419
aF0.9193548387096774
aF0.9193548387096774
aF0.9032258064516129
aF0.9193548387096774
aF0.8870967741935484
aF0.8870967741935484
aF0.9354838709677419
aF0.9354838709677419
asg10
F0.88258064516129
ssg11
(dp132
g8
(lp133
F0.9032258064516129
aF0.9032258064516129
aF0.22580645161290322
aF0.9032258064516129
aF0.8870967741935484
aF0.9193548387096774
aF0.9193548387096774
aF0.9032258064516129
aF0.9032258064516129
aF0.9032258064516129
aF0.9032258064516129
aF0.9354838709677419
aF0.8870967741935484
aF0.9032258064516129
aF0.9193548387096774
aF0.9032258064516129
aF0.9354838709677419
aF0.9193548387096774
aF0.9193548387096774
aF0.9032258064516129
aF0.9193548387096774
aF0.8870967741935484
aF0.8870967741935484
aF0.9354838709677419
aF0.9354838709677419
asg10
F0.88258064516129
ssg14
(dp134
g8
(lp135
F0.9032258064516129
aF0.9032258064516129
aF0.22580645161290322
aF0.9032258064516129
aF0.8870967741935484
aF0.9193548387096774
aF0.9193548387096774
aF0.9032258064516129
aF0.9032258064516129
aF0.9032258064516129
aF0.9032258064516129
aF0.9354838709677419
aF0.8870967741935484
aF0.9032258064516129
aF0.9193548387096774
aF0.9032258064516129
aF0.9354838709677419
aF0.9193548387096774
aF0.9193548387096774
aF0.9032258064516129
aF0.9193548387096774
aF0.8870967741935484
aF0.8870967741935484
aF0.9354838709677419
aF0.9354838709677419
asg10
F0.88258064516129
sssF0.66
(dp136
g6
(dp137
g8
(lp138
F0.9615384615384616
aF0.9230769230769231
aF0.9615384615384616
aF0.9615384615384616
aF0.8461538461538461
aF0.8846153846153846
aF0.8846153846153846
aF0.8846153846153846
aF1.0
aF0.9615384615384616
aF0.8846153846153846
aF0.9615384615384616
aF0.9230769230769231
aF0.8846153846153846
aF0.8461538461538461
aF0.9230769230769231
aF0.9230769230769231
aF0.9230769230769231
aF0.9615384615384616
aF0.9615384615384616
aF0.9615384615384616
aF0.8461538461538461
aF0.8846153846153846
aF0.9230769230769231
aF0.8461538461538461
asg10
F0.9169230769230768
ssg11
(dp139
g8
(lp140
F0.9615384615384616
aF0.9230769230769231
aF0.9615384615384616
aF0.9615384615384616
aF0.8461538461538461
aF0.8846153846153846
aF0.8846153846153846
aF0.8846153846153846
aF1.0
aF0.9615384615384616
aF0.8846153846153846
aF0.9615384615384616
aF0.9230769230769231
aF0.8846153846153846
aF0.8461538461538461
aF0.9230769230769231
aF0.9230769230769231
aF0.9230769230769231
aF0.9615384615384616
aF0.9615384615384616
aF0.9615384615384616
aF0.8461538461538461
aF0.8846153846153846
aF0.9230769230769231
aF0.8461538461538461
asg10
F0.9169230769230768
ssg14
(dp141
g8
(lp142
F0.9615384615384616
aF0.9230769230769231
aF0.9615384615384616
aF0.9615384615384616
aF0.8461538461538461
aF0.8846153846153846
aF0.8846153846153846
aF0.8846153846153846
aF1.0
aF0.9615384615384616
aF0.8846153846153846
aF0.9615384615384616
aF0.9230769230769231
aF0.8846153846153846
aF0.8461538461538461
aF0.9230769230769231
aF0.9230769230769231
aF0.9230769230769231
aF0.9615384615384616
aF0.9615384615384616
aF0.9615384615384616
aF0.8461538461538461
aF0.8846153846153846
aF0.9230769230769231
aF0.8461538461538461
asg10
F0.9169230769230768
sssF0.6
(dp143
g6
(dp144
g8
(lp145
F0.8666666666666667
aF0.8666666666666667
aF0.9
aF0.9333333333333333
aF0.9
aF1.0
aF0.9333333333333333
aF0.9666666666666667
aF0.8666666666666667
aF0.9
aF0.8666666666666667
aF0.9333333333333333
aF0.9666666666666667
aF0.7666666666666667
aF0.9
aF0.9
aF0.9333333333333333
aF0.8666666666666667
aF0.9666666666666667
aF0.8666666666666667
aF0.8333333333333334
aF0.9333333333333333
aF0.9
aF0.8666666666666667
aF0.9
asg10
F0.9013333333333332
ssg11
(dp146
g8
(lp147
F0.8666666666666667
aF0.8666666666666667
aF0.9
aF0.9333333333333333
aF0.9
aF1.0
aF0.9333333333333333
aF0.9666666666666667
aF0.8666666666666667
aF0.9
aF0.8666666666666667
aF0.9333333333333333
aF0.9666666666666667
aF0.7666666666666667
aF0.9
aF0.9
aF0.9333333333333333
aF0.8666666666666667
aF0.9666666666666667
aF0.8666666666666667
aF0.8333333333333334
aF0.9333333333333333
aF0.9
aF0.8666666666666667
aF0.9
asg10
F0.9013333333333332
ssg14
(dp148
g8
(lp149
F0.8666666666666667
aF0.8666666666666667
aF0.9
aF0.9333333333333333
aF0.9
aF1.0
aF0.9333333333333333
aF0.9666666666666667
aF0.8666666666666667
aF0.9
aF0.8666666666666667
aF0.9333333333333333
aF0.9666666666666667
aF0.7666666666666667
aF0.9
aF0.9
aF0.9333333333333333
aF0.8666666666666667
aF0.9666666666666667
aF0.8666666666666667
aF0.8333333333333334
aF0.9333333333333333
aF0.9
aF0.8666666666666667
aF0.9
asg10
F0.9013333333333332
sssF0.3
(dp150
g6
(dp151
g8
(lp152
F0.9245283018867925
aF0.8867924528301887
aF0.9433962264150944
aF0.8867924528301887
aF0.9056603773584906
aF0.9433962264150944
aF0.8867924528301887
aF0.9245283018867925
aF0.8867924528301887
aF0.9245283018867925
aF0.8867924528301887
aF0.9433962264150944
aF0.8867924528301887
aF0.9056603773584906
aF0.9433962264150944
aF0.8679245283018868
aF0.8867924528301887
aF0.9056603773584906
aF0.9245283018867925
aF0.8867924528301887
aF0.8679245283018868
aF0.9056603773584906
aF0.9433962264150944
aF0.9433962264150944
aF0.9056603773584906
asg10
F0.9086792452830188
ssg11
(dp153
g8
(lp154
F0.9245283018867925
aF0.8867924528301887
aF0.9433962264150944
aF0.8867924528301887
aF0.9056603773584906
aF0.9433962264150944
aF0.8867924528301887
aF0.9245283018867925
aF0.8867924528301887
aF0.9245283018867925
aF0.8867924528301887
aF0.9433962264150944
aF0.8867924528301887
aF0.9056603773584906
aF0.9433962264150944
aF0.8679245283018868
aF0.8867924528301887
aF0.9056603773584906
aF0.9245283018867925
aF0.8867924528301887
aF0.8679245283018868
aF0.9056603773584906
aF0.9433962264150944
aF0.9433962264150944
aF0.9056603773584906
asg10
F0.9086792452830188
ssg14
(dp155
g8
(lp156
F0.9245283018867925
aF0.8867924528301887
aF0.9433962264150944
aF0.8867924528301887
aF0.9056603773584906
aF0.9433962264150944
aF0.8867924528301887
aF0.9245283018867925
aF0.8867924528301887
aF0.9245283018867925
aF0.8867924528301887
aF0.9433962264150944
aF0.8867924528301887
aF0.9056603773584906
aF0.9433962264150944
aF0.8679245283018868
aF0.8867924528301887
aF0.9056603773584906
aF0.9245283018867925
aF0.8867924528301887
aF0.8679245283018868
aF0.9056603773584906
aF0.9433962264150944
aF0.9433962264150944
aF0.9056603773584906
asg10
F0.9086792452830188
sssF0.4
(dp157
g6
(dp158
g8
(lp159
F0.9111111111111111
aF0.9333333333333333
aF0.9555555555555556
aF0.8888888888888888
aF0.9111111111111111
aF0.9111111111111111
aF0.9111111111111111
aF0.9111111111111111
aF0.8888888888888888
aF0.8888888888888888
aF0.8666666666666667
aF0.8888888888888888
aF0.9111111111111111
aF0.9333333333333333
aF0.9333333333333333
aF0.8888888888888888
aF0.9333333333333333
aF0.8888888888888888
aF0.9333333333333333
aF0.9333333333333333
aF0.9333333333333333
aF0.9111111111111111
aF0.8888888888888888
aF0.8666666666666667
aF0.8666666666666667
asg10
F0.9075555555555558
ssg11
(dp160
g8
(lp161
F0.9111111111111111
aF0.9333333333333333
aF0.9555555555555556
aF0.8888888888888888
aF0.9111111111111111
aF0.9111111111111111
aF0.9111111111111111
aF0.9111111111111111
aF0.8888888888888888
aF0.8888888888888888
aF0.8666666666666667
aF0.8888888888888888
aF0.9111111111111111
aF0.9333333333333333
aF0.9333333333333333
aF0.8888888888888888
aF0.9333333333333333
aF0.8888888888888888
aF0.9333333333333333
aF0.9333333333333333
aF0.9333333333333333
aF0.9111111111111111
aF0.8888888888888888
aF0.8666666666666667
aF0.8666666666666667
asg10
F0.9075555555555558
ssg14
(dp162
g8
(lp163
F0.9111111111111111
aF0.9333333333333333
aF0.9555555555555556
aF0.8888888888888888
aF0.9111111111111111
aF0.9111111111111111
aF0.9111111111111111
aF0.9111111111111111
aF0.8888888888888888
aF0.8888888888888888
aF0.8666666666666667
aF0.8888888888888888
aF0.9111111111111111
aF0.9333333333333333
aF0.9333333333333333
aF0.8888888888888888
aF0.9333333333333333
aF0.8888888888888888
aF0.9333333333333333
aF0.9333333333333333
aF0.9333333333333333
aF0.9111111111111111
aF0.8888888888888888
aF0.8666666666666667
aF0.8666666666666667
asg10
F0.9075555555555558
sssF0.48
(dp164
g6
(dp165
g8
(lp166
F0.9230769230769231
aF0.9487179487179487
aF0.8717948717948718
aF0.9230769230769231
aF0.8717948717948718
aF0.8461538461538461
aF0.9230769230769231
aF0.9230769230769231
aF0.8974358974358975
aF0.9230769230769231
aF0.8717948717948718
aF0.8717948717948718
aF0.9230769230769231
aF0.8461538461538461
aF0.8974358974358975
aF0.8974358974358975
aF0.9230769230769231
aF0.8974358974358975
aF0.9230769230769231
aF0.8461538461538461
aF0.8974358974358975
aF0.9230769230769231
aF0.8974358974358975
aF0.8974358974358975
aF0.9230769230769231
asg10
F0.8994871794871797
ssg11
(dp167
g8
(lp168
F0.9230769230769231
aF0.9487179487179487
aF0.8717948717948718
aF0.9230769230769231
aF0.8717948717948718
aF0.8461538461538461
aF0.9230769230769231
aF0.9230769230769231
aF0.8974358974358975
aF0.9230769230769231
aF0.8717948717948718
aF0.8717948717948718
aF0.9230769230769231
aF0.8461538461538461
aF0.8974358974358975
aF0.8974358974358975
aF0.9230769230769231
aF0.8974358974358975
aF0.9230769230769231
aF0.8461538461538461
aF0.8974358974358975
aF0.9230769230769231
aF0.8974358974358975
aF0.8974358974358975
aF0.9230769230769231
asg10
F0.8994871794871797
ssg14
(dp169
g8
(lp170
F0.9230769230769231
aF0.9487179487179487
aF0.8717948717948718
aF0.9230769230769231
aF0.8717948717948718
aF0.8461538461538461
aF0.9230769230769231
aF0.9230769230769231
aF0.8974358974358975
aF0.9230769230769231
aF0.8717948717948718
aF0.8717948717948718
aF0.9230769230769231
aF0.8461538461538461
aF0.8974358974358975
aF0.8974358974358975
aF0.9230769230769231
aF0.8974358974358975
aF0.9230769230769231
aF0.8461538461538461
aF0.8974358974358975
aF0.9230769230769231
aF0.8974358974358975
aF0.8974358974358975
aF0.9230769230769231
asg10
F0.8994871794871797
sssF0.64
(dp171
g6
(dp172
g8
(lp173
F0.8888888888888888
aF0.8888888888888888
aF0.8888888888888888
aF0.9259259259259259
aF0.8148148148148148
aF0.8888888888888888
aF0.9629629629629629
aF0.9259259259259259
aF0.9259259259259259
aF1.0
aF0.8888888888888888
aF0.8518518518518519
aF0.9259259259259259
aF0.9629629629629629
aF0.8148148148148148
aF0.8888888888888888
aF0.8518518518518519
aF0.9629629629629629
aF0.9259259259259259
aF0.8148148148148148
aF0.8888888888888888
aF0.8518518518518519
aF0.9259259259259259
aF0.8518518518518519
aF0.8518518518518519
asg10
F0.8948148148148148
ssg11
(dp174
g8
(lp175
F0.8888888888888888
aF0.8888888888888888
aF0.8888888888888888
aF0.9259259259259259
aF0.8148148148148148
aF0.8888888888888888
aF0.9629629629629629
aF0.9259259259259259
aF0.9259259259259259
aF1.0
aF0.8888888888888888
aF0.8518518518518519
aF0.9259259259259259
aF0.9629629629629629
aF0.8148148148148148
aF0.8888888888888888
aF0.8518518518518519
aF0.9629629629629629
aF0.9259259259259259
aF0.8148148148148148
aF0.8888888888888888
aF0.8518518518518519
aF0.9259259259259259
aF0.8518518518518519
aF0.8518518518518519
asg10
F0.8948148148148148
ssg14
(dp176
g8
(lp177
F0.8888888888888888
aF0.8888888888888888
aF0.8888888888888888
aF0.9259259259259259
aF0.8148148148148148
aF0.8888888888888888
aF0.9629629629629629
aF0.9259259259259259
aF0.9259259259259259
aF1.0
aF0.8888888888888888
aF0.8518518518518519
aF0.9259259259259259
aF0.9629629629629629
aF0.8148148148148148
aF0.8888888888888888
aF0.8518518518518519
aF0.9629629629629629
aF0.9259259259259259
aF0.8148148148148148
aF0.8888888888888888
aF0.8518518518518519
aF0.9259259259259259
aF0.8518518518518519
aF0.8518518518518519
asg10
F0.8948148148148148
sssF0.46
(dp178
g6
(dp179
g8
(lp180
F0.8780487804878049
aF0.9024390243902439
aF0.9512195121951219
aF0.9024390243902439
aF0.9024390243902439
aF0.8536585365853658
aF0.8536585365853658
aF0.8780487804878049
aF0.926829268292683
aF0.9024390243902439
aF0.926829268292683
aF0.9512195121951219
aF0.9512195121951219
aF0.926829268292683
aF0.9512195121951219
aF0.926829268292683
aF0.8780487804878049
aF0.926829268292683
aF0.9024390243902439
aF0.8536585365853658
aF0.926829268292683
aF0.9024390243902439
aF0.9512195121951219
aF0.9024390243902439
aF0.975609756097561
asg10
F0.9121951219512197
ssg11
(dp181
g8
(lp182
F0.8780487804878049
aF0.9024390243902439
aF0.9512195121951219
aF0.9024390243902439
aF0.9024390243902439
aF0.8536585365853658
aF0.8536585365853658
aF0.8780487804878049
aF0.926829268292683
aF0.9024390243902439
aF0.926829268292683
aF0.9512195121951219
aF0.9512195121951219
aF0.926829268292683
aF0.9512195121951219
aF0.926829268292683
aF0.8780487804878049
aF0.926829268292683
aF0.9024390243902439
aF0.8536585365853658
aF0.926829268292683
aF0.9024390243902439
aF0.9512195121951219
aF0.9024390243902439
aF0.975609756097561
asg10
F0.9121951219512197
ssg14
(dp183
g8
(lp184
F0.8780487804878049
aF0.9024390243902439
aF0.9512195121951219
aF0.9024390243902439
aF0.9024390243902439
aF0.8536585365853658
aF0.8536585365853658
aF0.8780487804878049
aF0.926829268292683
aF0.9024390243902439
aF0.926829268292683
aF0.9512195121951219
aF0.9512195121951219
aF0.926829268292683
aF0.9512195121951219
aF0.926829268292683
aF0.8780487804878049
aF0.926829268292683
aF0.9024390243902439
aF0.8536585365853658
aF0.926829268292683
aF0.9024390243902439
aF0.9512195121951219
aF0.9024390243902439
aF0.975609756097561
asg10
F0.9121951219512197
sssF0.28
(dp185
g6
(dp186
g8
(lp187
F0.9074074074074074
aF0.9074074074074074
aF0.8888888888888888
aF0.9444444444444444
aF0.9074074074074074
aF0.9074074074074074
aF0.9259259259259259
aF0.9259259259259259
aF0.8703703703703703
aF0.9074074074074074
aF0.8888888888888888
aF0.9074074074074074
aF0.9074074074074074
aF0.8888888888888888
aF0.9074074074074074
aF0.9444444444444444
aF0.8888888888888888
aF0.9074074074074074
aF0.8703703703703703
aF0.8888888888888888
aF0.9259259259259259
aF0.8703703703703703
aF0.8703703703703703
aF0.8888888888888888
aF0.9259259259259259
asg10
F0.9029629629629632
ssg11
(dp188
g8
(lp189
F0.9074074074074074
aF0.9074074074074074
aF0.8888888888888888
aF0.9444444444444444
aF0.9074074074074074
aF0.9074074074074074
aF0.9259259259259259
aF0.9259259259259259
aF0.8703703703703703
aF0.9074074074074074
aF0.8888888888888888
aF0.9074074074074074
aF0.9074074074074074
aF0.8888888888888888
aF0.9074074074074074
aF0.9444444444444444
aF0.8888888888888888
aF0.9074074074074074
aF0.8703703703703703
aF0.8888888888888888
aF0.9259259259259259
aF0.8703703703703703
aF0.8703703703703703
aF0.8888888888888888
aF0.9259259259259259
asg10
F0.9029629629629632
ssg14
(dp190
g8
(lp191
F0.9074074074074074
aF0.9074074074074074
aF0.8888888888888888
aF0.9444444444444444
aF0.9074074074074074
aF0.9074074074074074
aF0.9259259259259259
aF0.9259259259259259
aF0.8703703703703703
aF0.9074074074074074
aF0.8888888888888888
aF0.9074074074074074
aF0.9074074074074074
aF0.8888888888888888
aF0.9074074074074074
aF0.9444444444444444
aF0.8888888888888888
aF0.9074074074074074
aF0.8703703703703703
aF0.8888888888888888
aF0.9259259259259259
aF0.8703703703703703
aF0.8703703703703703
aF0.8888888888888888
aF0.9259259259259259
asg10
F0.9029629629629632
sssF0.32
(dp192
g6
(dp193
g8
(lp194
F0.9019607843137255
aF0.9019607843137255
aF0.9019607843137255
aF0.9019607843137255
aF0.8627450980392157
aF0.9019607843137255
aF0.8823529411764706
aF0.9215686274509803
aF0.8823529411764706
aF0.9411764705882353
aF0.9607843137254902
aF0.8823529411764706
aF0.9411764705882353
aF0.8823529411764706
aF0.9019607843137255
aF0.9411764705882353
aF0.9019607843137255
aF0.9411764705882353
aF0.9019607843137255
aF0.8627450980392157
aF0.9607843137254902
aF0.9215686274509803
aF0.9215686274509803
aF0.9411764705882353
aF0.9215686274509803
asg10
F0.9113725490196081
ssg11
(dp195
g8
(lp196
F0.9019607843137255
aF0.9019607843137255
aF0.9019607843137255
aF0.9019607843137255
aF0.8627450980392157
aF0.9019607843137255
aF0.8823529411764706
aF0.9215686274509803
aF0.8823529411764706
aF0.9411764705882353
aF0.9607843137254902
aF0.8823529411764706
aF0.9411764705882353
aF0.8823529411764706
aF0.9019607843137255
aF0.9411764705882353
aF0.9019607843137255
aF0.9411764705882353
aF0.9019607843137255
aF0.8627450980392157
aF0.9607843137254902
aF0.9215686274509803
aF0.9215686274509803
aF0.9411764705882353
aF0.9215686274509803
asg10
F0.9113725490196081
ssg14
(dp197
g8
(lp198
F0.9019607843137255
aF0.9019607843137255
aF0.9019607843137255
aF0.9019607843137255
aF0.8627450980392157
aF0.9019607843137255
aF0.8823529411764706
aF0.9215686274509803
aF0.8823529411764706
aF0.9411764705882353
aF0.9607843137254902
aF0.8823529411764706
aF0.9411764705882353
aF0.8823529411764706
aF0.9019607843137255
aF0.9411764705882353
aF0.9019607843137255
aF0.9411764705882353
aF0.9019607843137255
aF0.8627450980392157
aF0.9607843137254902
aF0.9215686274509803
aF0.9215686274509803
aF0.9411764705882353
aF0.9215686274509803
asg10
F0.9113725490196081
sssF0.1
(dp199
g6
(dp200
g8
(lp201
F0.8970588235294118
aF0.9117647058823529
aF0.8970588235294118
aF0.9117647058823529
aF0.5441176470588235
aF0.9117647058823529
aF0.9117647058823529
aF0.9264705882352942
aF0.8970588235294118
aF0.9117647058823529
aF0.9264705882352942
aF0.8970588235294118
aF0.9117647058823529
aF0.8970588235294118
aF0.8970588235294118
aF0.8970588235294118
aF0.9117647058823529
aF0.9264705882352942
aF0.22058823529411764
aF0.8970588235294118
aF0.9117647058823529
aF0.8970588235294118
aF0.9117647058823529
aF0.9117647058823529
aF0.9117647058823529
asg10
F0.8658823529411762
ssg11
(dp202
g8
(lp203
F0.8970588235294118
aF0.9117647058823529
aF0.8970588235294118
aF0.9117647058823529
aF0.5441176470588235
aF0.9117647058823529
aF0.9117647058823529
aF0.9264705882352942
aF0.8970588235294118
aF0.9117647058823529
aF0.9264705882352942
aF0.8970588235294118
aF0.9117647058823529
aF0.8970588235294118
aF0.8970588235294118
aF0.8970588235294118
aF0.9117647058823529
aF0.9264705882352942
aF0.22058823529411764
aF0.8970588235294118
aF0.9117647058823529
aF0.8970588235294118
aF0.9117647058823529
aF0.9117647058823529
aF0.9117647058823529
asg10
F0.8658823529411762
ssg14
(dp204
g8
(lp205
F0.8970588235294118
aF0.9117647058823529
aF0.8970588235294118
aF0.9117647058823529
aF0.5441176470588235
aF0.9117647058823529
aF0.9117647058823529
aF0.9264705882352942
aF0.8970588235294118
aF0.9117647058823529
aF0.9264705882352942
aF0.8970588235294118
aF0.9117647058823529
aF0.8970588235294118
aF0.8970588235294118
aF0.8970588235294118
aF0.9117647058823529
aF0.9264705882352942
aF0.22058823529411764
aF0.8970588235294118
aF0.9117647058823529
aF0.8970588235294118
aF0.9117647058823529
aF0.9117647058823529
aF0.9117647058823529
asg10
F0.8658823529411762
sssF0.2
(dp206
g6
(dp207
g8
(lp208
F0.9
aF0.8833333333333333
aF0.9
aF0.9166666666666666
aF0.9166666666666666
aF0.9
aF0.9
aF0.8833333333333333
aF0.9166666666666666
aF0.9333333333333333
aF0.9
aF0.9333333333333333
aF0.9
aF0.9
aF0.9333333333333333
aF0.8833333333333333
aF0.9
aF0.8833333333333333
aF0.8833333333333333
aF0.9333333333333333
aF0.9
aF0.9
aF0.9
aF0.9166666666666666
aF0.9
asg10
F0.9046666666666665
ssg11
(dp209
g8
(lp210
F0.9
aF0.8833333333333333
aF0.9
aF0.9166666666666666
aF0.9166666666666666
aF0.9
aF0.9
aF0.8833333333333333
aF0.9166666666666666
aF0.9333333333333333
aF0.9
aF0.9333333333333333
aF0.9
aF0.9
aF0.9333333333333333
aF0.8833333333333333
aF0.9
aF0.8833333333333333
aF0.8833333333333333
aF0.9333333333333333
aF0.9
aF0.9
aF0.9
aF0.9166666666666666
aF0.9
asg10
F0.9046666666666665
ssg14
(dp211
g8
(lp212
F0.9
aF0.8833333333333333
aF0.9
aF0.9166666666666666
aF0.9166666666666666
aF0.9
aF0.9
aF0.8833333333333333
aF0.9166666666666666
aF0.9333333333333333
aF0.9
aF0.9333333333333333
aF0.9
aF0.9
aF0.9333333333333333
aF0.8833333333333333
aF0.9
aF0.8833333333333333
aF0.8833333333333333
aF0.9333333333333333
aF0.9
aF0.9
aF0.9
aF0.9166666666666666
aF0.9
asg10
F0.9046666666666665
sssF0.54
(dp213
g6
(dp214
g8
(lp215
F0.9428571428571428
aF0.8571428571428571
aF0.8571428571428571
aF0.9428571428571428
aF0.8857142857142857
aF0.9428571428571428
aF0.9428571428571428
aF0.9428571428571428
aF0.8857142857142857
aF0.8571428571428571
aF0.9428571428571428
aF0.8857142857142857
aF0.8571428571428571
aF0.8571428571428571
aF0.9142857142857143
aF0.9142857142857143
aF0.8857142857142857
aF1.0
aF0.8571428571428571
aF0.8857142857142857
aF0.9142857142857143
aF0.9142857142857143
aF0.9428571428571428
aF0.9142857142857143
aF0.9142857142857143
asg10
F0.9062857142857145
ssg11
(dp216
g8
(lp217
F0.9428571428571428
aF0.8571428571428571
aF0.8571428571428571
aF0.9428571428571428
aF0.8857142857142857
aF0.9428571428571428
aF0.9428571428571428
aF0.9428571428571428
aF0.8857142857142857
aF0.8571428571428571
aF0.9428571428571428
aF0.8857142857142857
aF0.8571428571428571
aF0.8571428571428571
aF0.9142857142857143
aF0.9142857142857143
aF0.8857142857142857
aF1.0
aF0.8571428571428571
aF0.8857142857142857
aF0.9142857142857143
aF0.9142857142857143
aF0.9428571428571428
aF0.9142857142857143
aF0.9142857142857143
asg10
F0.9062857142857145
ssg14
(dp218
g8
(lp219
F0.9428571428571428
aF0.8571428571428571
aF0.8571428571428571
aF0.9428571428571428
aF0.8857142857142857
aF0.9428571428571428
aF0.9428571428571428
aF0.9428571428571428
aF0.8857142857142857
aF0.8571428571428571
aF0.9428571428571428
aF0.8857142857142857
aF0.8571428571428571
aF0.8571428571428571
aF0.9142857142857143
aF0.9142857142857143
aF0.8857142857142857
aF1.0
aF0.8571428571428571
aF0.8857142857142857
aF0.9142857142857143
aF0.9142857142857143
aF0.9428571428571428
aF0.9142857142857143
aF0.9142857142857143
asg10
F0.9062857142857145
sssF0.34
(dp220
g6
(dp221
g8
(lp222
F0.88
aF0.86
aF0.86
aF0.86
aF0.94
aF0.88
aF0.9
aF0.92
aF0.9
aF0.88
aF0.9
aF0.94
aF0.88
aF0.9
aF0.88
aF0.92
aF0.9
aF0.88
aF0.88
aF0.88
aF0.9
aF0.92
aF0.92
aF0.94
aF0.92
asg10
F0.8976000000000002
ssg11
(dp223
g8
(lp224
F0.88
aF0.86
aF0.86
aF0.86
aF0.94
aF0.88
aF0.9
aF0.92
aF0.9
aF0.88
aF0.9
aF0.94
aF0.88
aF0.9
aF0.88
aF0.92
aF0.9
aF0.88
aF0.88
aF0.88
aF0.9
aF0.92
aF0.92
aF0.94
aF0.92
asg10
F0.8976000000000002
ssg14
(dp225
g8
(lp226
F0.88
aF0.86
aF0.86
aF0.86
aF0.94
aF0.88
aF0.9
aF0.92
aF0.9
aF0.88
aF0.9
aF0.94
aF0.88
aF0.9
aF0.88
aF0.92
aF0.9
aF0.88
aF0.88
aF0.88
aF0.9
aF0.92
aF0.92
aF0.94
aF0.92
asg10
F0.8976000000000002
sssF0.52
(dp227
g6
(dp228
g8
(lp229
F0.9444444444444444
aF0.9166666666666666
aF0.8611111111111112
aF0.9166666666666666
aF0.9444444444444444
aF0.8888888888888888
aF0.8611111111111112
aF0.9444444444444444
aF0.9444444444444444
aF0.9444444444444444
aF0.9444444444444444
aF0.9166666666666666
aF0.9444444444444444
aF0.9166666666666666
aF0.8888888888888888
aF0.8888888888888888
aF0.9166666666666666
aF0.8333333333333334
aF0.9444444444444444
aF0.9444444444444444
aF0.9166666666666666
aF0.9166666666666666
aF0.9444444444444444
aF0.9722222222222222
aF0.9166666666666666
asg10
F0.9188888888888888
ssg11
(dp230
g8
(lp231
F0.9444444444444444
aF0.9166666666666666
aF0.8611111111111112
aF0.9166666666666666
aF0.9444444444444444
aF0.8888888888888888
aF0.8611111111111112
aF0.9444444444444444
aF0.9444444444444444
aF0.9444444444444444
aF0.9444444444444444
aF0.9166666666666666
aF0.9444444444444444
aF0.9166666666666666
aF0.8888888888888888
aF0.8888888888888888
aF0.9166666666666666
aF0.8333333333333334
aF0.9444444444444444
aF0.9444444444444444
aF0.9166666666666666
aF0.9166666666666666
aF0.9444444444444444
aF0.9722222222222222
aF0.9166666666666666
asg10
F0.9188888888888888
ssg14
(dp232
g8
(lp233
F0.9444444444444444
aF0.9166666666666666
aF0.8611111111111112
aF0.9166666666666666
aF0.9444444444444444
aF0.8888888888888888
aF0.8611111111111112
aF0.9444444444444444
aF0.9444444444444444
aF0.9444444444444444
aF0.9444444444444444
aF0.9166666666666666
aF0.9444444444444444
aF0.9166666666666666
aF0.8888888888888888
aF0.8888888888888888
aF0.9166666666666666
aF0.8333333333333334
aF0.9444444444444444
aF0.9444444444444444
aF0.9166666666666666
aF0.9166666666666666
aF0.9444444444444444
aF0.9722222222222222
aF0.9166666666666666
asg10
F0.9188888888888888
sssF0.62
(dp234
g6
(dp235
g8
(lp236
F0.9655172413793104
aF0.8620689655172413
aF0.9655172413793104
aF0.8620689655172413
aF0.896551724137931
aF0.896551724137931
aF0.896551724137931
aF0.8620689655172413
aF0.9310344827586207
aF0.9310344827586207
aF0.896551724137931
aF0.8275862068965517
aF0.9310344827586207
aF1.0
aF0.9310344827586207
aF0.9310344827586207
aF0.9655172413793104
aF0.9655172413793104
aF0.896551724137931
aF0.9310344827586207
aF0.8275862068965517
aF0.8620689655172413
aF0.896551724137931
aF0.896551724137931
aF0.8620689655172413
asg10
F0.9075862068965518
ssg11
(dp237
g8
(lp238
F0.9655172413793104
aF0.8620689655172413
aF0.9655172413793104
aF0.8620689655172413
aF0.896551724137931
aF0.896551724137931
aF0.896551724137931
aF0.8620689655172413
aF0.9310344827586207
aF0.9310344827586207
aF0.896551724137931
aF0.8275862068965517
aF0.9310344827586207
aF1.0
aF0.9310344827586207
aF0.9310344827586207
aF0.9655172413793104
aF0.9655172413793104
aF0.896551724137931
aF0.9310344827586207
aF0.8275862068965517
aF0.8620689655172413
aF0.896551724137931
aF0.896551724137931
aF0.8620689655172413
asg10
F0.9075862068965518
ssg14
(dp239
g8
(lp240
F0.9655172413793104
aF0.8620689655172413
aF0.9655172413793104
aF0.8620689655172413
aF0.896551724137931
aF0.896551724137931
aF0.896551724137931
aF0.8620689655172413
aF0.9310344827586207
aF0.9310344827586207
aF0.896551724137931
aF0.8275862068965517
aF0.9310344827586207
aF1.0
aF0.9310344827586207
aF0.9310344827586207
aF0.9655172413793104
aF0.9655172413793104
aF0.896551724137931
aF0.9310344827586207
aF0.8275862068965517
aF0.8620689655172413
aF0.896551724137931
aF0.896551724137931
aF0.8620689655172413
asg10
F0.9075862068965518
sssF0.14
(dp241
g6
(dp242
g8
(lp243
F0.9076923076923077
aF0.8923076923076924
aF0.46153846153846156
aF0.8923076923076924
aF0.9076923076923077
aF0.8923076923076924
aF0.9384615384615385
aF0.8923076923076924
aF0.9076923076923077
aF0.9076923076923077
aF0.8923076923076924
aF0.9076923076923077
aF0.8923076923076924
aF0.8923076923076924
aF0.9076923076923077
aF0.9076923076923077
aF0.8923076923076924
aF0.9230769230769231
aF0.9076923076923077
aF0.9076923076923077
aF0.8923076923076924
aF0.9076923076923077
aF0.9230769230769231
aF0.9076923076923077
aF0.9230769230769231
asg10
F0.8873846153846157
ssg11
(dp244
g8
(lp245
F0.9076923076923077
aF0.8923076923076924
aF0.46153846153846156
aF0.8923076923076924
aF0.9076923076923077
aF0.8923076923076924
aF0.9384615384615385
aF0.8923076923076924
aF0.9076923076923077
aF0.9076923076923077
aF0.8923076923076924
aF0.9076923076923077
aF0.8923076923076924
aF0.8923076923076924
aF0.9076923076923077
aF0.9076923076923077
aF0.8923076923076924
aF0.9230769230769231
aF0.9076923076923077
aF0.9076923076923077
aF0.8923076923076924
aF0.9076923076923077
aF0.9230769230769231
aF0.9076923076923077
aF0.9230769230769231
asg10
F0.8873846153846157
ssg14
(dp246
g8
(lp247
F0.9076923076923077
aF0.8923076923076924
aF0.46153846153846156
aF0.8923076923076924
aF0.9076923076923077
aF0.8923076923076924
aF0.9384615384615385
aF0.8923076923076924
aF0.9076923076923077
aF0.9076923076923077
aF0.8923076923076924
aF0.9076923076923077
aF0.8923076923076924
aF0.8923076923076924
aF0.9076923076923077
aF0.9076923076923077
aF0.8923076923076924
aF0.9230769230769231
aF0.9076923076923077
aF0.9076923076923077
aF0.8923076923076924
aF0.9076923076923077
aF0.9230769230769231
aF0.9076923076923077
aF0.9230769230769231
asg10
F0.8873846153846157
ssss.