(dp0
S'percentages'
p1
(lp2
F0.02
aF0.04
aF0.06
aF0.08
aF0.1
aF0.12
aF0.14
aF0.16
aF0.18
aF0.2
aF0.22
aF0.24
aF0.26
aF0.28
aF0.3
aF0.32
aF0.34
aF0.36
aF0.38
aF0.4
aF0.42
aF0.44
aF0.46
aF0.48
aF0.5
aF0.52
aF0.54
aF0.56
aF0.58
aF0.6
aF0.62
aF0.64
aF0.66
aF0.68
asS'results'
p3
(lp4
(dp5
S'ide_dec'
p6
(dp7
S'recalls'
p8
(lp9
F0.24324324324324326
aF0.0
aF0.0
aF0.0
aF0.9054054054054054
aF0.0
aF0.0
aF0.0
aF0.0
aF0.0
aF0.0
aF0.0
aF0.0
aF0.0
aF0.35135135135135137
aF0.0
aF0.0
aF0.0
aF0.0
aF0.3108108108108108
aF0.0
aF0.0
aF0.35135135135135137
aF0.0
aF0.7162162162162162
aF0.0
aF0.1891891891891892
aF0.0
aF0.06756756756756757
aF0.0
aF0.20270270270270271
aF0.0
aF0.0
aF0.24324324324324326
aF0.0
aF0.0
aF0.918918918918919
aF0.20270270270270271
aF0.17567567567567569
aF0.0
aF0.17567567567567569
aF0.0
aF0.0
aF0.0
aF0.20270270270270271
aF0.0
aF0.0
aF0.0
aF0.0
aF0.0
asS'recall'
p10
F0.10513513513513512
ssS'rocchio'
p11
(dp12
g8
(lp13
F0.16216216216216217
aF0.0
aF0.0
aF0.0
aF0.9054054054054054
aF0.04054054054054054
aF0.0
aF0.0
aF0.0
aF0.0
aF0.0
aF0.0
aF0.04054054054054054
aF0.04054054054054054
aF0.1891891891891892
aF0.08108108108108109
aF0.10810810810810811
aF0.0
aF0.0
aF0.1891891891891892
aF0.10810810810810811
aF0.0
aF0.1891891891891892
aF0.0
aF0.4594594594594595
aF0.0
aF0.17567567567567569
aF0.0
aF0.06756756756756757
aF0.06756756756756757
aF0.05405405405405406
aF0.04054054054054054
aF0.0
aF0.16216216216216217
aF0.0
aF0.0
aF0.9054054054054054
aF0.1891891891891892
aF0.12162162162162163
aF0.0
aF0.12162162162162163
aF0.0
aF0.0
aF0.0945945945945946
aF0.10810810810810811
aF0.04054054054054054
aF0.0
aF0.06756756756756757
aF0.0
aF0.04054054054054054
asg10
F0.09540540540540542
ssS'ide_regular'
p14
(dp15
g8
(lp16
F0.06756756756756757
aF0.17567567567567569
aF0.02702702702702703
aF0.02702702702702703
aF0.02702702702702703
aF0.04054054054054054
aF0.06756756756756757
aF0.02702702702702703
aF0.13513513513513514
aF0.02702702702702703
aF0.02702702702702703
aF0.05405405405405406
aF0.04054054054054054
aF0.04054054054054054
aF0.06756756756756757
aF0.02702702702702703
aF0.10810810810810811
aF0.13513513513513514
aF0.05405405405405406
aF0.13513513513513514
aF0.10810810810810811
aF0.06756756756756757
aF0.06756756756756757
aF0.05405405405405406
aF0.0
aF0.06756756756756757
aF0.12162162162162163
aF0.0
aF0.0
aF0.06756756756756757
aF0.05405405405405406
aF0.04054054054054054
aF0.04054054054054054
aF0.06756756756756757
aF0.02702702702702703
aF0.13513513513513514
aF0.013513513513513514
aF0.013513513513513514
aF0.02702702702702703
aF0.0
aF0.02702702702702703
aF0.13513513513513514
aF0.06756756756756757
aF0.0
aF0.02702702702702703
aF0.04054054054054054
aF0.02702702702702703
aF0.06756756756756757
aF0.06756756756756757
aF0.04054054054054054
asg10
F0.05567567567567569
ssa(dp17
g6
(dp18
g8
(lp19
F0.9166666666666666
aF0.9027777777777778
aF0.9027777777777778
aF0.2777777777777778
aF0.041666666666666664
aF0.1111111111111111
aF0.9027777777777778
aF0.9027777777777778
aF0.9027777777777778
aF0.9166666666666666
aF0.3888888888888889
aF0.9305555555555556
aF0.9027777777777778
aF0.4722222222222222
aF0.4444444444444444
aF0.9027777777777778
aF0.9027777777777778
aF0.9166666666666666
aF0.0
aF0.2916666666666667
aF0.9027777777777778
aF0.9027777777777778
aF0.4305555555555556
aF0.4444444444444444
aF0.0
aF0.0
aF0.9027777777777778
aF0.9027777777777778
aF0.0
aF0.3194444444444444
aF0.9166666666666666
aF0.9027777777777778
aF0.9027777777777778
aF0.9027777777777778
aF0.9027777777777778
aF0.08333333333333333
aF0.75
aF0.9166666666666666
aF0.25
aF0.9027777777777778
aF0.5416666666666666
aF0.0
aF0.3472222222222222
aF0.9027777777777778
aF0.7361111111111112
aF0.5555555555555556
aF0.5972222222222222
aF0.8194444444444444
aF0.9027777777777778
aF0.9027777777777778
asg10
F0.6294444444444447
ssg11
(dp20
g8
(lp21
F0.9166666666666666
aF0.0
aF0.0
aF0.2638888888888889
aF0.041666666666666664
aF0.1111111111111111
aF0.625
aF0.9027777777777778
aF0.9027777777777778
aF0.0
aF0.3194444444444444
aF0.9166666666666666
aF0.9027777777777778
aF0.4722222222222222
aF0.2777777777777778
aF0.0
aF0.0
aF0.0
aF0.0
aF0.2222222222222222
aF0.9027777777777778
aF0.9027777777777778
aF0.2361111111111111
aF0.25
aF0.0
aF0.2222222222222222
aF0.0
aF0.9027777777777778
aF0.0
aF0.1527777777777778
aF0.9305555555555556
aF0.9027777777777778
aF0.0
aF0.9027777777777778
aF0.0
aF0.08333333333333333
aF0.25
aF0.9166666666666666
aF0.25
aF0.9027777777777778
aF0.4027777777777778
aF0.0
aF0.3472222222222222
aF0.9027777777777778
aF0.5833333333333334
aF0.5555555555555556
aF0.5972222222222222
aF0.8194444444444444
aF0.0
aF0.9027777777777778
asg10
F0.4138888888888889
ssg14
(dp22
g8
(lp23
F0.041666666666666664
aF0.08333333333333333
aF0.16666666666666666
aF0.08333333333333333
aF0.125
aF0.09722222222222222
aF0.18055555555555555
aF0.2361111111111111
aF0.1111111111111111
aF0.125
aF0.041666666666666664
aF0.125
aF0.1388888888888889
aF0.125
aF0.06944444444444445
aF0.125
aF0.19444444444444445
aF0.08333333333333333
aF0.09722222222222222
aF0.027777777777777776
aF0.125
aF0.041666666666666664
aF0.06944444444444445
aF0.05555555555555555
aF0.16666666666666666
aF0.1527777777777778
aF0.05555555555555555
aF0.09722222222222222
aF0.027777777777777776
aF0.125
aF0.125
aF0.1388888888888889
aF0.1388888888888889
aF0.1527777777777778
aF0.125
aF0.027777777777777776
aF0.09722222222222222
aF0.1388888888888889
aF0.08333333333333333
aF0.1111111111111111
aF0.1111111111111111
aF0.08333333333333333
aF0.041666666666666664
aF0.09722222222222222
aF0.09722222222222222
aF0.2222222222222222
aF0.08333333333333333
aF0.013888888888888888
aF0.05555555555555555
aF0.1111111111111111
asg10
F0.10499999999999997
ssa(dp24
g6
(dp25
g8
(lp26
F0.9014084507042254
aF0.9154929577464789
aF0.9154929577464789
aF0.5352112676056338
aF0.9014084507042254
aF0.7887323943661971
aF0.9014084507042254
aF0.9014084507042254
aF0.9014084507042254
aF0.5352112676056338
aF0.7464788732394366
aF0.9014084507042254
aF0.9014084507042254
aF0.0
aF0.9014084507042254
aF0.9154929577464789
aF0.9014084507042254
aF0.9014084507042254
aF0.0
aF0.0
aF0.9014084507042254
aF0.704225352112676
aF0.9014084507042254
aF0.0
aF0.9014084507042254
aF0.9014084507042254
aF0.9014084507042254
aF0.9014084507042254
aF0.9014084507042254
aF0.9154929577464789
aF0.5492957746478874
aF0.9014084507042254
aF0.0
aF0.39436619718309857
aF0.9014084507042254
aF0.9436619718309859
aF0.9014084507042254
aF0.9014084507042254
aF0.9154929577464789
aF0.9014084507042254
aF0.0
aF0.9014084507042254
aF0.9014084507042254
aF0.9014084507042254
aF0.3380281690140845
aF0.1267605633802817
aF0.39436619718309857
aF0.9014084507042254
aF0.9154929577464789
aF0.9014084507042254
asg10
F0.7177464788732393
ssg11
(dp27
g8
(lp28
F0.323943661971831
aF0.0
aF0.0
aF0.43661971830985913
aF0.6619718309859155
aF0.352112676056338
aF0.4084507042253521
aF0.5633802816901409
aF0.43661971830985913
aF0.5070422535211268
aF0.36619718309859156
aF0.0
aF0.9014084507042254
aF0.0
aF0.09859154929577464
aF0.9154929577464789
aF0.9014084507042254
aF0.0
aF0.0
aF0.0
aF0.9014084507042254
aF0.704225352112676
aF0.9014084507042254
aF0.0
aF0.9014084507042254
aF0.9014084507042254
aF0.0
aF0.9014084507042254
aF0.9014084507042254
aF0.0
aF0.2112676056338028
aF0.5633802816901409
aF0.08450704225352113
aF0.2676056338028169
aF0.4507042253521127
aF0.9436619718309859
aF0.5633802816901409
aF0.9014084507042254
aF0.9154929577464789
aF0.9014084507042254
aF0.0
aF0.352112676056338
aF0.9295774647887324
aF0.9014084507042254
aF0.28169014084507044
aF0.1267605633802817
aF0.36619718309859156
aF0.4084507042253521
aF0.36619718309859156
aF0.5633802816901409
asg10
F0.46169014084507043
ssg14
(dp29
g8
(lp30
F0.08450704225352113
aF0.14084507042253522
aF0.15492957746478872
aF0.08450704225352113
aF0.18309859154929578
aF0.22535211267605634
aF0.028169014084507043
aF0.08450704225352113
aF0.1267605633802817
aF0.1267605633802817
aF0.07042253521126761
aF0.014084507042253521
aF0.08450704225352113
aF0.22535211267605634
aF0.1267605633802817
aF0.14084507042253522
aF0.028169014084507043
aF0.16901408450704225
aF0.15492957746478872
aF0.11267605633802817
aF0.14084507042253522
aF0.04225352112676056
aF0.07042253521126761
aF0.11267605633802817
aF0.14084507042253522
aF0.14084507042253522
aF0.15492957746478872
aF0.15492957746478872
aF0.16901408450704225
aF0.14084507042253522
aF0.09859154929577464
aF0.028169014084507043
aF0.1267605633802817
aF0.07042253521126761
aF0.1267605633802817
aF0.14084507042253522
aF0.09859154929577464
aF0.14084507042253522
aF0.11267605633802817
aF0.14084507042253522
aF0.09859154929577464
aF0.08450704225352113
aF0.09859154929577464
aF0.15492957746478872
aF0.07042253521126761
aF0.11267605633802817
aF0.028169014084507043
aF0.16901408450704225
aF0.14084507042253522
aF0.09859154929577464
asg10
F0.11549295774647883
ssa(dp31
g6
(dp32
g8
(lp33
F0.927536231884058
aF0.8985507246376812
aF0.8985507246376812
aF0.8985507246376812
aF0.927536231884058
aF0.927536231884058
aF0.8985507246376812
aF0.8985507246376812
aF0.9130434782608695
aF0.0
aF0.8985507246376812
aF0.8985507246376812
aF0.9565217391304348
aF0.8985507246376812
aF0.9130434782608695
aF0.8985507246376812
aF0.927536231884058
aF0.9130434782608695
aF0.0
aF0.8985507246376812
aF0.2318840579710145
aF0.8985507246376812
aF0.9130434782608695
aF0.8985507246376812
aF0.9130434782608695
aF0.927536231884058
aF0.8985507246376812
aF0.9420289855072463
aF0.0
aF0.0
aF0.8985507246376812
aF0.9130434782608695
aF0.9130434782608695
aF0.9130434782608695
aF0.8985507246376812
aF0.9130434782608695
aF0.927536231884058
aF0.8985507246376812
aF0.9130434782608695
aF0.8985507246376812
aF0.9130434782608695
aF0.9130434782608695
aF0.8985507246376812
aF0.5652173913043478
aF0.8985507246376812
aF0.8985507246376812
aF0.927536231884058
aF0.8985507246376812
aF0.8985507246376812
aF0.8985507246376812
asg10
F0.816231884057971
ssg11
(dp34
g8
(lp35
F0.7101449275362319
aF0.8985507246376812
aF0.8985507246376812
aF0.3333333333333333
aF0.5942028985507246
aF0.0
aF0.8985507246376812
aF0.855072463768116
aF0.9130434782608695
aF0.0
aF0.9130434782608695
aF0.4927536231884058
aF0.9420289855072463
aF0.8985507246376812
aF0.07246376811594203
aF0.8985507246376812
aF0.0
aF0.34782608695652173
aF0.0
aF0.8985507246376812
aF0.2318840579710145
aF0.2753623188405797
aF0.9130434782608695
aF0.8985507246376812
aF0.9130434782608695
aF0.043478260869565216
aF0.8985507246376812
aF0.4782608695652174
aF0.0
aF0.0
aF0.8985507246376812
aF0.9130434782608695
aF0.463768115942029
aF0.9130434782608695
aF0.8985507246376812
aF0.9130434782608695
aF0.21739130434782608
aF0.8985507246376812
aF0.9130434782608695
aF0.2318840579710145
aF0.13043478260869565
aF0.9130434782608695
aF0.7971014492753623
aF0.927536231884058
aF0.8985507246376812
aF0.8985507246376812
aF0.043478260869565216
aF0.8985507246376812
aF0.0
aF0.21739130434782608
asg10
F0.5840579710144927
ssg14
(dp36
g8
(lp37
F0.07246376811594203
aF0.14492753623188406
aF0.14492753623188406
aF0.08695652173913043
aF0.2608695652173913
aF0.08695652173913043
aF0.21739130434782608
aF0.30434782608695654
aF0.057971014492753624
aF0.15942028985507245
aF0.07246376811594203
aF0.13043478260869565
aF0.11594202898550725
aF0.17391304347826086
aF0.14492753623188406
aF0.14492753623188406
aF0.13043478260869565
aF0.08695652173913043
aF0.08695652173913043
aF0.043478260869565216
aF0.11594202898550725
aF0.13043478260869565
aF0.13043478260869565
aF0.13043478260869565
aF0.14492753623188406
aF0.15942028985507245
aF0.11594202898550725
aF0.07246376811594203
aF0.13043478260869565
aF0.15942028985507245
aF0.13043478260869565
aF0.028985507246376812
aF0.15942028985507245
aF0.057971014492753624
aF0.08695652173913043
aF0.07246376811594203
aF0.11594202898550725
aF0.15942028985507245
aF0.028985507246376812
aF0.17391304347826086
aF0.13043478260869565
aF0.11594202898550725
aF0.07246376811594203
aF0.11594202898550725
aF0.10144927536231885
aF0.07246376811594203
aF0.028985507246376812
aF0.13043478260869565
aF0.11594202898550725
aF0.15942028985507245
asg10
F0.12028985507246379
ssa(dp38
g6
(dp39
g8
(lp40
F0.8970588235294118
aF0.9117647058823529
aF0.8970588235294118
aF0.8970588235294118
aF0.9117647058823529
aF0.8970588235294118
aF0.9117647058823529
aF0.9117647058823529
aF0.9411764705882353
aF0.8970588235294118
aF0.9117647058823529
aF0.8970588235294118
aF0.9264705882352942
aF0.8970588235294118
aF0.8970588235294118
aF0.9264705882352942
aF0.8970588235294118
aF0.8970588235294118
aF0.8970588235294118
aF0.8970588235294118
aF0.4852941176470588
aF0.8970588235294118
aF0.8970588235294118
aF0.9117647058823529
aF0.8970588235294118
aF0.9264705882352942
aF0.8970588235294118
aF0.9117647058823529
aF0.9117647058823529
aF0.8970588235294118
aF0.8970588235294118
aF0.9117647058823529
aF0.8970588235294118
aF0.8970588235294118
aF0.8970588235294118
aF0.8970588235294118
aF0.8970588235294118
aF0.8970588235294118
aF0.9117647058823529
aF0.8970588235294118
aF0.8970588235294118
aF0.8970588235294118
aF0.6029411764705882
aF0.0
aF0.25
aF0.9117647058823529
aF0.8970588235294118
aF0.9117647058823529
aF0.8970588235294118
aF0.9117647058823529
asg10
F0.8585294117647062
ssg11
(dp41
g8
(lp42
F0.9264705882352942
aF0.6029411764705882
aF0.25
aF0.058823529411764705
aF0.4852941176470588
aF0.8970588235294118
aF0.2647058823529412
aF0.9117647058823529
aF0.9411764705882353
aF0.8970588235294118
aF0.9117647058823529
aF0.7058823529411765
aF0.9264705882352942
aF0.8970588235294118
aF0.8970588235294118
aF0.9264705882352942
aF0.8970588235294118
aF0.8970588235294118
aF0.8970588235294118
aF0.8970588235294118
aF0.3382352941176471
aF0.6911764705882353
aF0.8970588235294118
aF0.5147058823529411
aF0.8970588235294118
aF0.9264705882352942
aF0.8970588235294118
aF0.0
aF0.9117647058823529
aF0.8970588235294118
aF0.8970588235294118
aF0.9117647058823529
aF0.8970588235294118
aF0.8970588235294118
aF0.23529411764705882
aF0.3088235294117647
aF0.8970588235294118
aF0.8970588235294118
aF0.9117647058823529
aF0.9117647058823529
aF0.47058823529411764
aF0.38235294117647056
aF0.39705882352941174
aF0.0
aF0.36764705882352944
aF0.36764705882352944
aF0.8970588235294118
aF0.9117647058823529
aF0.8970588235294118
aF0.4411764705882353
asg10
F0.6991176470588235
ssg14
(dp43
g8
(lp44
F0.14705882352941177
aF0.16176470588235295
aF0.11764705882352941
aF0.11764705882352941
aF0.11764705882352941
aF0.10294117647058823
aF0.17647058823529413
aF0.14705882352941177
aF0.1323529411764706
aF0.16176470588235295
aF0.19117647058823528
aF0.11764705882352941
aF0.17647058823529413
aF0.07352941176470588
aF0.07352941176470588
aF0.20588235294117646
aF0.14705882352941177
aF0.11764705882352941
aF0.14705882352941177
aF0.16176470588235295
aF0.07352941176470588
aF0.10294117647058823
aF0.08823529411764706
aF0.08823529411764706
aF0.1323529411764706
aF0.14705882352941177
aF0.11764705882352941
aF0.10294117647058823
aF0.07352941176470588
aF0.20588235294117646
aF0.11764705882352941
aF0.04411764705882353
aF0.11764705882352941
aF0.11764705882352941
aF0.058823529411764705
aF0.11764705882352941
aF0.19117647058823528
aF0.1323529411764706
aF0.20588235294117646
aF0.10294117647058823
aF0.14705882352941177
aF0.08823529411764706
aF0.11764705882352941
aF0.1323529411764706
aF0.20588235294117646
aF0.16176470588235295
aF0.16176470588235295
aF0.08823529411764706
aF0.16176470588235295
aF0.14705882352941177
asg10
F0.13088235294117648
ssa(dp45
g6
(dp46
g8
(lp47
F0.8939393939393939
aF0.9090909090909091
aF0.9242424242424242
aF0.9090909090909091
aF0.8939393939393939
aF0.9242424242424242
aF0.9090909090909091
aF0.9090909090909091
aF0.9090909090909091
aF0.9090909090909091
aF0.9242424242424242
aF0.9242424242424242
aF0.9090909090909091
aF0.21212121212121213
aF0.8939393939393939
aF0.8939393939393939
aF0.9242424242424242
aF0.8939393939393939
aF0.9090909090909091
aF0.8939393939393939
aF0.9090909090909091
aF0.8939393939393939
aF0.9393939393939394
aF0.8939393939393939
aF0.8939393939393939
aF0.9090909090909091
aF0.8939393939393939
aF0.8939393939393939
aF0.8939393939393939
aF0.8939393939393939
aF0.9090909090909091
aF0.9090909090909091
aF0.9242424242424242
aF0.9090909090909091
aF0.8939393939393939
aF0.9090909090909091
aF0.9090909090909091
aF0.8939393939393939
aF0.9242424242424242
aF0.8939393939393939
aF0.9090909090909091
aF0.8939393939393939
aF0.8939393939393939
aF0.9242424242424242
aF0.9090909090909091
aF0.9242424242424242
aF0.8939393939393939
aF0.8939393939393939
aF0.8939393939393939
aF0.8939393939393939
asg10
F0.8918181818181813
ssg11
(dp48
g8
(lp49
F0.8939393939393939
aF0.8636363636363636
aF0.3333333333333333
aF0.9090909090909091
aF0.8939393939393939
aF0.3181818181818182
aF0.0
aF0.9090909090909091
aF0.42424242424242425
aF0.3939393939393939
aF0.3939393939393939
aF0.9242424242424242
aF0.9242424242424242
aF0.2878787878787879
aF0.8939393939393939
aF0.9242424242424242
aF0.5151515151515151
aF0.8939393939393939
aF0.9090909090909091
aF0.8939393939393939
aF0.4696969696969697
aF0.8939393939393939
aF0.4393939393939394
aF0.5606060606060606
aF0.8939393939393939
aF0.9090909090909091
aF0.8939393939393939
aF0.8939393939393939
aF0.8939393939393939
aF0.8939393939393939
aF0.9090909090909091
aF0.24242424242424243
aF0.9242424242424242
aF0.9242424242424242
aF0.8939393939393939
aF0.4696969696969697
aF0.48484848484848486
aF0.8939393939393939
aF0.9242424242424242
aF0.3939393939393939
aF0.9090909090909091
aF0.8939393939393939
aF0.8939393939393939
aF0.9242424242424242
aF0.9090909090909091
aF0.0
aF0.8939393939393939
aF0.8939393939393939
aF0.8939393939393939
aF0.9242424242424242
asg10
F0.7287878787878788
ssg14
(dp50
g8
(lp51
F0.19696969696969696
aF0.045454545454545456
aF0.12121212121212122
aF0.12121212121212122
aF0.15151515151515152
aF0.15151515151515152
aF0.13636363636363635
aF0.09090909090909091
aF0.13636363636363635
aF0.09090909090909091
aF0.24242424242424243
aF0.13636363636363635
aF0.19696969696969696
aF0.13636363636363635
aF0.18181818181818182
aF0.16666666666666666
aF0.21212121212121213
aF0.13636363636363635
aF0.18181818181818182
aF0.18181818181818182
aF0.16666666666666666
aF0.19696969696969696
aF0.21212121212121213
aF0.18181818181818182
aF0.15151515151515152
aF0.09090909090909091
aF0.21212121212121213
aF0.16666666666666666
aF0.12121212121212122
aF0.15151515151515152
aF0.15151515151515152
aF0.13636363636363635
aF0.19696969696969696
aF0.15151515151515152
aF0.10606060606060606
aF0.19696969696969696
aF0.12121212121212122
aF0.24242424242424243
aF0.15151515151515152
aF0.13636363636363635
aF0.07575757575757576
aF0.10606060606060606
aF0.15151515151515152
aF0.18181818181818182
aF0.09090909090909091
aF0.15151515151515152
aF0.16666666666666666
aF0.12121212121212122
aF0.13636363636363635
aF0.22727272727272727
asg10
F0.15333333333333335
ssa(dp52
g6
(dp53
g8
(lp54
F0.8923076923076924
aF0.9538461538461539
aF0.9230769230769231
aF0.8923076923076924
aF0.9076923076923077
aF0.9076923076923077
aF0.8923076923076924
aF0.8923076923076924
aF0.9076923076923077
aF0.9076923076923077
aF0.8923076923076924
aF0.9230769230769231
aF0.8923076923076924
aF0.8923076923076924
aF0.9076923076923077
aF0.9230769230769231
aF0.9230769230769231
aF0.8923076923076924
aF0.9076923076923077
aF0.9076923076923077
aF0.9230769230769231
aF0.8923076923076924
aF0.4153846153846154
aF0.9076923076923077
aF0.9230769230769231
aF0.9076923076923077
aF0.9230769230769231
aF0.9230769230769231
aF0.9230769230769231
aF0.8923076923076924
aF0.8923076923076924
aF0.9230769230769231
aF0.9230769230769231
aF0.2
aF0.0
aF0.9230769230769231
aF0.8923076923076924
aF0.9384615384615385
aF0.9230769230769231
aF0.8923076923076924
aF0.9076923076923077
aF0.9076923076923077
aF0.9076923076923077
aF0.9076923076923077
aF0.9230769230769231
aF0.9230769230769231
aF0.9076923076923077
aF0.8923076923076924
aF0.9076923076923077
aF0.9076923076923077
asg10
F0.8673846153846152
ssg11
(dp55
g8
(lp56
F0.23076923076923078
aF0.5846153846153846
aF0.9230769230769231
aF0.8923076923076924
aF0.9076923076923077
aF0.35384615384615387
aF0.8923076923076924
aF0.8923076923076924
aF0.9076923076923077
aF0.9076923076923077
aF0.9230769230769231
aF0.4461538461538462
aF0.8923076923076924
aF0.8923076923076924
aF0.9076923076923077
aF0.9230769230769231
aF0.9230769230769231
aF0.8923076923076924
aF0.9076923076923077
aF0.9230769230769231
aF0.9230769230769231
aF0.3076923076923077
aF0.2923076923076923
aF0.9076923076923077
aF0.3230769230769231
aF0.0
aF0.9230769230769231
aF0.9230769230769231
aF0.9384615384615385
aF0.9230769230769231
aF0.8923076923076924
aF0.9230769230769231
aF0.9230769230769231
aF0.2
aF0.0
aF0.9230769230769231
aF0.49230769230769234
aF0.23076923076923078
aF0.9230769230769231
aF0.8923076923076924
aF0.9076923076923077
aF0.9230769230769231
aF0.9076923076923077
aF0.2153846153846154
aF0.9230769230769231
aF0.47692307692307695
aF0.9076923076923077
aF0.8923076923076924
aF0.9076923076923077
aF0.9230769230769231
asg10
F0.7393846153846152
ssg14
(dp57
g8
(lp58
F0.12307692307692308
aF0.1076923076923077
aF0.12307692307692308
aF0.2923076923076923
aF0.07692307692307693
aF0.13846153846153847
aF0.12307692307692308
aF0.13846153846153847
aF0.18461538461538463
aF0.1076923076923077
aF0.2
aF0.16923076923076924
aF0.12307692307692308
aF0.1076923076923077
aF0.18461538461538463
aF0.13846153846153847
aF0.12307692307692308
aF0.16923076923076924
aF0.09230769230769231
aF0.1076923076923077
aF0.15384615384615385
aF0.18461538461538463
aF0.24615384615384617
aF0.12307692307692308
aF0.2153846153846154
aF0.18461538461538463
aF0.13846153846153847
aF0.15384615384615385
aF0.15384615384615385
aF0.1076923076923077
aF0.12307692307692308
aF0.15384615384615385
aF0.07692307692307693
aF0.1076923076923077
aF0.2
aF0.12307692307692308
aF0.13846153846153847
aF0.18461538461538463
aF0.13846153846153847
aF0.27692307692307694
aF0.1076923076923077
aF0.13846153846153847
aF0.13846153846153847
aF0.2
aF0.12307692307692308
aF0.13846153846153847
aF0.12307692307692308
aF0.13846153846153847
aF0.13846153846153847
aF0.15384615384615385
asg10
F0.1483076923076924
ssa(dp59
g6
(dp60
g8
(lp61
F0.9206349206349206
aF0.9206349206349206
aF0.9365079365079365
aF0.9047619047619048
aF0.9047619047619048
aF0.9047619047619048
aF0.8888888888888888
aF0.9365079365079365
aF0.9047619047619048
aF0.9047619047619048
aF0.8888888888888888
aF0.9047619047619048
aF0.9047619047619048
aF0.9206349206349206
aF0.9047619047619048
aF0.9206349206349206
aF0.9206349206349206
aF0.2222222222222222
aF0.9523809523809523
aF0.8888888888888888
aF0.9047619047619048
aF0.9047619047619048
aF0.8888888888888888
aF0.8888888888888888
aF0.8888888888888888
aF0.9365079365079365
aF0.9206349206349206
aF0.9206349206349206
aF0.9047619047619048
aF0.9047619047619048
aF0.9206349206349206
aF0.8888888888888888
aF0.9206349206349206
aF0.9047619047619048
aF0.9047619047619048
aF0.9206349206349206
aF0.9206349206349206
aF0.9365079365079365
aF0.9523809523809523
aF0.8888888888888888
aF0.9047619047619048
aF0.9047619047619048
aF0.8888888888888888
aF0.9047619047619048
aF0.9047619047619048
aF0.9047619047619048
aF0.9206349206349206
aF0.9206349206349206
aF0.9047619047619048
aF0.9206349206349206
asg10
F0.8971428571428568
ssg11
(dp62
g8
(lp63
F0.5079365079365079
aF0.9206349206349206
aF0.4603174603174603
aF0.9047619047619048
aF0.9206349206349206
aF0.9047619047619048
aF0.8888888888888888
aF0.5396825396825397
aF0.9047619047619048
aF0.9047619047619048
aF0.8888888888888888
aF0.9206349206349206
aF0.9047619047619048
aF0.9206349206349206
aF0.9047619047619048
aF0.9206349206349206
aF0.9365079365079365
aF0.2222222222222222
aF0.9365079365079365
aF0.8888888888888888
aF0.9047619047619048
aF0.9047619047619048
aF0.8888888888888888
aF0.8888888888888888
aF0.8888888888888888
aF0.7619047619047619
aF0.9206349206349206
aF0.9206349206349206
aF0.9365079365079365
aF0.9206349206349206
aF0.9206349206349206
aF0.9206349206349206
aF0.9206349206349206
aF0.25396825396825395
aF0.9206349206349206
aF0.9206349206349206
aF0.9206349206349206
aF0.0
aF0.49206349206349204
aF0.8888888888888888
aF0.9047619047619048
aF0.9047619047619048
aF0.8888888888888888
aF0.42857142857142855
aF0.9047619047619048
aF0.9047619047619048
aF0.9206349206349206
aF0.9365079365079365
aF0.9047619047619048
aF0.9206349206349206
asg10
F0.8203174603174602
ssg14
(dp64
g8
(lp65
F0.15873015873015872
aF0.1746031746031746
aF0.1111111111111111
aF0.20634920634920634
aF0.07936507936507936
aF0.2222222222222222
aF0.07936507936507936
aF0.2857142857142857
aF0.15873015873015872
aF0.14285714285714285
aF0.25396825396825395
aF0.15873015873015872
aF0.2222222222222222
aF0.1111111111111111
aF0.15873015873015872
aF0.14285714285714285
aF0.20634920634920634
aF0.15873015873015872
aF0.20634920634920634
aF0.1746031746031746
aF0.23809523809523808
aF0.23809523809523808
aF0.2222222222222222
aF0.12698412698412698
aF0.15873015873015872
aF0.1746031746031746
aF0.15873015873015872
aF0.20634920634920634
aF0.1746031746031746
aF0.19047619047619047
aF0.12698412698412698
aF0.2698412698412698
aF0.20634920634920634
aF0.20634920634920634
aF0.1746031746031746
aF0.25396825396825395
aF0.12698412698412698
aF0.20634920634920634
aF0.20634920634920634
aF0.15873015873015872
aF0.15873015873015872
aF0.15873015873015872
aF0.09523809523809523
aF0.2222222222222222
aF0.19047619047619047
aF0.25396825396825395
aF0.12698412698412698
aF0.15873015873015872
aF0.12698412698412698
aF0.20634920634920634
asg10
F0.17873015873015874
ssa(dp66
g6
(dp67
g8
(lp68
F0.9032258064516129
aF0.9032258064516129
aF0.9032258064516129
aF0.9354838709677419
aF0.9032258064516129
aF0.9354838709677419
aF0.9354838709677419
aF0.9032258064516129
aF0.9193548387096774
aF0.9032258064516129
aF0.9032258064516129
aF0.9032258064516129
aF0.9354838709677419
aF0.3709677419354839
aF0.8870967741935484
aF0.8870967741935484
aF0.9193548387096774
aF0.5161290322580645
aF0.9193548387096774
aF0.9032258064516129
aF0.9354838709677419
aF0.8870967741935484
aF0.8870967741935484
aF0.9032258064516129
aF0.8870967741935484
aF0.9032258064516129
aF0.9032258064516129
aF0.8870967741935484
aF0.9516129032258065
aF0.9032258064516129
aF0.9032258064516129
aF0.9032258064516129
aF0.9032258064516129
aF0.9193548387096774
aF0.9032258064516129
aF0.9354838709677419
aF0.9032258064516129
aF0.9193548387096774
aF0.9193548387096774
aF0.9354838709677419
aF0.8870967741935484
aF0.8870967741935484
aF0.8870967741935484
aF0.9032258064516129
aF0.8870967741935484
aF0.8870967741935484
aF0.9032258064516129
aF0.9193548387096774
aF0.9193548387096774
aF0.9193548387096774
asg10
F0.8896774193548391
ssg11
(dp69
g8
(lp70
F0.9032258064516129
aF0.9032258064516129
aF0.532258064516129
aF0.9354838709677419
aF0.9032258064516129
aF0.9354838709677419
aF0.9354838709677419
aF0.9032258064516129
aF0.9193548387096774
aF0.0
aF0.9032258064516129
aF0.9032258064516129
aF0.9354838709677419
aF0.3709677419354839
aF0.8870967741935484
aF0.8870967741935484
aF0.9193548387096774
aF0.5161290322580645
aF0.9193548387096774
aF0.9354838709677419
aF0.9354838709677419
aF0.8870967741935484
aF0.8870967741935484
aF0.9032258064516129
aF0.8870967741935484
aF0.9032258064516129
aF0.9354838709677419
aF0.1774193548387097
aF0.9516129032258065
aF0.9032258064516129
aF0.9032258064516129
aF0.9032258064516129
aF0.9032258064516129
aF0.9193548387096774
aF0.9032258064516129
aF0.9354838709677419
aF0.9032258064516129
aF0.5806451612903226
aF0.5483870967741935
aF0.11290322580645161
aF0.8870967741935484
aF0.20967741935483872
aF0.8870967741935484
aF0.9032258064516129
aF0.8870967741935484
aF0.8870967741935484
aF0.9032258064516129
aF0.9193548387096774
aF0.9193548387096774
aF0.9193548387096774
asg10
F0.8070967741935486
ssg14
(dp71
g8
(lp72
F0.14516129032258066
aF0.16129032258064516
aF0.24193548387096775
aF0.11290322580645161
aF0.16129032258064516
aF0.1935483870967742
aF0.1774193548387097
aF0.12903225806451613
aF0.14516129032258066
aF0.14516129032258066
aF0.16129032258064516
aF0.0
aF0.2903225806451613
aF0.06451612903225806
aF0.12903225806451613
aF0.14516129032258066
aF0.20967741935483872
aF0.24193548387096775
aF0.14516129032258066
aF0.1935483870967742
aF0.16129032258064516
aF0.1935483870967742
aF0.16129032258064516
aF0.16129032258064516
aF0.24193548387096775
aF0.14516129032258066
aF0.1774193548387097
aF0.14516129032258066
aF0.12903225806451613
aF0.22580645161290322
aF0.20967741935483872
aF0.1774193548387097
aF0.27419354838709675
aF0.14516129032258066
aF0.20967741935483872
aF0.0967741935483871
aF0.11290322580645161
aF0.1935483870967742
aF0.25806451612903225
aF0.08064516129032258
aF0.16129032258064516
aF0.12903225806451613
aF0.24193548387096775
aF0.16129032258064516
aF0.22580645161290322
aF0.08064516129032258
aF0.1935483870967742
aF0.1935483870967742
aF0.12903225806451613
aF0.1935483870967742
asg10
F0.16806451612903228
ssa(dp73
g6
(dp74
g8
(lp75
F0.8833333333333333
aF0.9
aF0.9
aF0.8833333333333333
aF0.9166666666666666
aF0.8833333333333333
aF0.9
aF0.9166666666666666
aF0.9166666666666666
aF0.9
aF0.9166666666666666
aF0.9
aF0.9
aF0.9166666666666666
aF0.9166666666666666
aF0.9
aF0.9166666666666666
aF0.9
aF0.8833333333333333
aF0.9
aF0.9166666666666666
aF0.9166666666666666
aF0.8833333333333333
aF0.8833333333333333
aF0.9
aF0.8833333333333333
aF0.9
aF0.9166666666666666
aF0.9
aF0.9166666666666666
aF0.9166666666666666
aF0.9166666666666666
aF0.9
aF0.9
aF0.9333333333333333
aF0.9
aF0.9333333333333333
aF0.8833333333333333
aF0.9
aF0.9
aF0.9
aF0.9166666666666666
aF0.9166666666666666
aF0.9166666666666666
aF0.8833333333333333
aF0.9166666666666666
aF0.8833333333333333
aF0.9
aF0.8833333333333333
aF0.9
asg10
F0.9033333333333329
ssg11
(dp76
g8
(lp77
F0.8833333333333333
aF0.9166666666666666
aF0.36666666666666664
aF0.8833333333333333
aF0.9166666666666666
aF0.8833333333333333
aF0.5333333333333333
aF0.5333333333333333
aF0.45
aF0.9
aF0.9166666666666666
aF0.9
aF0.9
aF0.9166666666666666
aF0.9166666666666666
aF0.9166666666666666
aF0.9166666666666666
aF0.9
aF0.8833333333333333
aF0.9
aF0.9166666666666666
aF0.9166666666666666
aF0.8833333333333333
aF0.23333333333333334
aF0.9
aF0.8833333333333333
aF0.9
aF0.9166666666666666
aF0.9
aF0.9166666666666666
aF0.9166666666666666
aF0.9166666666666666
aF0.9333333333333333
aF0.9
aF0.9666666666666667
aF0.9
aF0.9333333333333333
aF0.4166666666666667
aF0.9
aF0.9
aF0.9
aF0.4166666666666667
aF0.9166666666666666
aF0.4
aF0.21666666666666667
aF0.9166666666666666
aF0.8833333333333333
aF0.9
aF0.8833333333333333
aF0.9
asg10
F0.8143333333333331
ssg14
(dp78
g8
(lp79
F0.13333333333333333
aF0.23333333333333334
aF0.16666666666666666
aF0.23333333333333334
aF0.08333333333333333
aF0.13333333333333333
aF0.21666666666666667
aF0.36666666666666664
aF0.23333333333333334
aF0.18333333333333332
aF0.2833333333333333
aF0.18333333333333332
aF0.18333333333333332
aF0.25
aF0.11666666666666667
aF0.23333333333333334
aF0.2
aF0.21666666666666667
aF0.08333333333333333
aF0.18333333333333332
aF0.18333333333333332
aF0.18333333333333332
aF0.1
aF0.08333333333333333
aF0.1
aF0.26666666666666666
aF0.13333333333333333
aF0.26666666666666666
aF0.1
aF0.26666666666666666
aF0.13333333333333333
aF0.25
aF0.25
aF0.15
aF0.15
aF0.21666666666666667
aF0.18333333333333332
aF0.16666666666666666
aF0.18333333333333332
aF0.2833333333333333
aF0.26666666666666666
aF0.1
aF0.16666666666666666
aF0.16666666666666666
aF0.13333333333333333
aF0.18333333333333332
aF0.2
aF0.16666666666666666
aF0.15
aF0.15
asg10
F0.18499999999999997
ssa(dp80
g6
(dp81
g8
(lp82
F0.9152542372881356
aF0.9152542372881356
aF0.9322033898305084
aF0.8983050847457628
aF0.8983050847457628
aF0.9322033898305084
aF0.5423728813559322
aF0.8983050847457628
aF0.9152542372881356
aF0.9322033898305084
aF0.8813559322033898
aF0.8983050847457628
aF0.9152542372881356
aF0.9152542372881356
aF0.9152542372881356
aF0.8983050847457628
aF0.8983050847457628
aF0.8983050847457628
aF0.8983050847457628
aF0.8983050847457628
aF0.8983050847457628
aF0.8983050847457628
aF0.8813559322033898
aF0.8983050847457628
aF0.8813559322033898
aF0.8813559322033898
aF0.8983050847457628
aF0.9152542372881356
aF0.9322033898305084
aF0.9152542372881356
aF0.9152542372881356
aF0.8983050847457628
aF0.8813559322033898
aF0.9152542372881356
aF0.9322033898305084
aF0.8813559322033898
aF0.8813559322033898
aF0.8813559322033898
aF0.9152542372881356
aF0.9152542372881356
aF0.9491525423728814
aF0.8813559322033898
aF0.8813559322033898
aF0.8813559322033898
aF0.8983050847457628
aF0.8983050847457628
aF0.9152542372881356
aF0.8983050847457628
aF0.8813559322033898
aF0.4745762711864407
asg10
F0.8874576271186443
ssg11
(dp83
g8
(lp84
F0.9152542372881356
aF0.9152542372881356
aF0.0
aF0.8983050847457628
aF0.4915254237288136
aF0.6949152542372882
aF0.4915254237288136
aF0.8983050847457628
aF0.9152542372881356
aF0.9322033898305084
aF0.8813559322033898
aF0.8983050847457628
aF0.9152542372881356
aF0.9322033898305084
aF0.2033898305084746
aF0.8983050847457628
aF0.8983050847457628
aF0.8983050847457628
aF0.9152542372881356
aF0.8983050847457628
aF0.8983050847457628
aF0.8983050847457628
aF0.8813559322033898
aF0.8983050847457628
aF0.8813559322033898
aF0.8813559322033898
aF0.8983050847457628
aF0.9491525423728814
aF0.9322033898305084
aF0.9152542372881356
aF0.9152542372881356
aF0.8983050847457628
aF0.8813559322033898
aF0.9152542372881356
aF0.9322033898305084
aF0.8813559322033898
aF0.8813559322033898
aF0.8813559322033898
aF0.423728813559322
aF0.4406779661016949
aF0.9830508474576272
aF0.9152542372881356
aF0.8813559322033898
aF0.8813559322033898
aF0.8983050847457628
aF0.8983050847457628
aF0.9152542372881356
aF0.22033898305084745
aF0.8813559322033898
aF0.5423728813559322
asg10
F0.8118644067796612
ssg14
(dp85
g8
(lp86
F0.23728813559322035
aF0.1694915254237288
aF0.1016949152542373
aF0.1016949152542373
aF0.23728813559322035
aF0.288135593220339
aF0.23728813559322035
aF0.1016949152542373
aF0.13559322033898305
aF0.1694915254237288
aF0.13559322033898305
aF0.2542372881355932
aF0.1694915254237288
aF0.22033898305084745
aF0.2033898305084746
aF0.22033898305084745
aF0.15254237288135594
aF0.13559322033898305
aF0.2711864406779661
aF0.11864406779661017
aF0.11864406779661017
aF0.1864406779661017
aF0.2711864406779661
aF0.1694915254237288
aF0.22033898305084745
aF0.1694915254237288
aF0.1864406779661017
aF0.23728813559322035
aF0.15254237288135594
aF0.2711864406779661
aF0.11864406779661017
aF0.22033898305084745
aF0.23728813559322035
aF0.3220338983050847
aF0.11864406779661017
aF0.1864406779661017
aF0.22033898305084745
aF0.3050847457627119
aF0.1864406779661017
aF0.1864406779661017
aF0.1694915254237288
aF0.15254237288135594
aF0.13559322033898305
aF0.0
aF0.23728813559322035
aF0.288135593220339
aF0.15254237288135594
aF0.1864406779661017
aF0.1864406779661017
aF0.2033898305084746
asg10
F0.18915254237288143
ssa(dp87
g6
(dp88
g8
(lp89
F0.9122807017543859
aF0.8947368421052632
aF0.9122807017543859
aF0.9298245614035088
aF0.8947368421052632
aF0.9298245614035088
aF0.9122807017543859
aF0.8947368421052632
aF0.9122807017543859
aF0.9122807017543859
aF0.9298245614035088
aF0.9298245614035088
aF0.8947368421052632
aF0.9122807017543859
aF0.8947368421052632
aF0.8947368421052632
aF0.9122807017543859
aF0.8947368421052632
aF0.9122807017543859
aF0.9298245614035088
aF0.9298245614035088
aF0.9298245614035088
aF0.9298245614035088
aF0.9298245614035088
aF0.8947368421052632
aF0.8947368421052632
aF0.8771929824561403
aF0.8771929824561403
aF0.9122807017543859
aF0.8947368421052632
aF0.9122807017543859
aF0.9298245614035088
aF0.9122807017543859
aF0.9122807017543859
aF0.8947368421052632
aF0.8771929824561403
aF0.8947368421052632
aF0.8947368421052632
aF0.9473684210526315
aF0.9298245614035088
aF0.8947368421052632
aF0.8947368421052632
aF0.9298245614035088
aF0.8947368421052632
aF0.8771929824561403
aF0.8771929824561403
aF0.9122807017543859
aF0.9122807017543859
aF0.8947368421052632
aF0.9298245614035088
asg10
F0.908070175438596
ssg11
(dp90
g8
(lp91
F0.9122807017543859
aF0.8947368421052632
aF0.9473684210526315
aF0.9298245614035088
aF0.8947368421052632
aF0.9298245614035088
aF0.9122807017543859
aF0.8947368421052632
aF0.9122807017543859
aF0.9122807017543859
aF0.5263157894736842
aF0.9298245614035088
aF0.8947368421052632
aF0.9122807017543859
aF0.8947368421052632
aF0.17543859649122806
aF0.49122807017543857
aF0.8947368421052632
aF0.47368421052631576
aF0.9298245614035088
aF0.9298245614035088
aF0.9298245614035088
aF0.9298245614035088
aF0.9298245614035088
aF0.8947368421052632
aF0.8947368421052632
aF0.8771929824561403
aF0.21052631578947367
aF0.9122807017543859
aF0.8947368421052632
aF0.9122807017543859
aF0.9473684210526315
aF0.9122807017543859
aF0.9122807017543859
aF0.8947368421052632
aF0.8771929824561403
aF0.8947368421052632
aF0.8947368421052632
aF0.9649122807017544
aF0.9298245614035088
aF0.8947368421052632
aF0.5614035087719298
aF0.9298245614035088
aF0.8947368421052632
aF0.8771929824561403
aF0.8771929824561403
aF0.9122807017543859
aF0.9298245614035088
aF0.8947368421052632
aF0.6140350877192983
asg10
F0.8438596491228069
ssg14
(dp92
g8
(lp93
F0.19298245614035087
aF0.3157894736842105
aF0.19298245614035087
aF0.3508771929824561
aF0.21052631578947367
aF0.2631578947368421
aF0.2631578947368421
aF0.17543859649122806
aF0.22807017543859648
aF0.05263157894736842
aF0.19298245614035087
aF0.22807017543859648
aF0.17543859649122806
aF0.24561403508771928
aF0.17543859649122806
aF0.17543859649122806
aF0.21052631578947367
aF0.24561403508771928
aF0.12280701754385964
aF0.21052631578947367
aF0.19298245614035087
aF0.14035087719298245
aF0.14035087719298245
aF0.22807017543859648
aF0.12280701754385964
aF0.17543859649122806
aF0.2631578947368421
aF0.2631578947368421
aF0.12280701754385964
aF0.22807017543859648
aF0.15789473684210525
aF0.19298245614035087
aF0.14035087719298245
aF0.15789473684210525
aF0.21052631578947367
aF0.17543859649122806
aF0.15789473684210525
aF0.2631578947368421
aF0.2982456140350877
aF0.2631578947368421
aF0.22807017543859648
aF0.19298245614035087
aF0.15789473684210525
aF0.14035087719298245
aF0.17543859649122806
aF0.14035087719298245
aF0.17543859649122806
aF0.19298245614035087
aF0.12280701754385964
aF0.21052631578947367
asg10
F0.19719298245614034
ssa(dp94
g6
(dp95
g8
(lp96
F0.875
aF0.9285714285714286
aF0.8928571428571429
aF0.8928571428571429
aF0.9107142857142857
aF0.9107142857142857
aF0.9107142857142857
aF0.9107142857142857
aF0.9107142857142857
aF0.9107142857142857
aF0.9464285714285714
aF0.8928571428571429
aF0.875
aF0.9107142857142857
aF0.9107142857142857
aF0.9285714285714286
aF0.9107142857142857
aF0.8928571428571429
aF0.875
aF0.875
aF0.8928571428571429
aF0.9107142857142857
aF0.9107142857142857
aF0.9285714285714286
aF0.9285714285714286
aF0.8928571428571429
aF0.8928571428571429
aF0.875
aF0.8928571428571429
aF0.9107142857142857
aF0.9107142857142857
aF0.9464285714285714
aF0.875
aF0.9107142857142857
aF0.8928571428571429
aF0.9107142857142857
aF0.9821428571428571
aF0.9107142857142857
aF0.9107142857142857
aF0.8928571428571429
aF0.875
aF0.9107142857142857
aF0.9107142857142857
aF0.8928571428571429
aF0.9285714285714286
aF0.9285714285714286
aF0.9464285714285714
aF0.875
aF0.9285714285714286
aF0.9285714285714286
asg10
F0.9075
ssg11
(dp97
g8
(lp98
F0.875
aF0.9285714285714286
aF0.8928571428571429
aF0.8928571428571429
aF0.9107142857142857
aF0.9107142857142857
aF0.9107142857142857
aF0.9285714285714286
aF0.9107142857142857
aF0.9285714285714286
aF0.9464285714285714
aF0.8928571428571429
aF0.875
aF0.9107142857142857
aF0.9107142857142857
aF0.5892857142857143
aF0.9107142857142857
aF0.8928571428571429
aF0.875
aF0.875
aF0.8928571428571429
aF0.9107142857142857
aF0.9107142857142857
aF0.9285714285714286
aF0.9285714285714286
aF0.8928571428571429
aF0.8928571428571429
aF0.875
aF0.8928571428571429
aF0.9107142857142857
aF0.9107142857142857
aF0.9464285714285714
aF0.875
aF0.9107142857142857
aF0.8928571428571429
aF0.9107142857142857
aF0.6964285714285714
aF0.9107142857142857
aF0.9107142857142857
aF0.8928571428571429
aF0.875
aF0.9107142857142857
aF0.9285714285714286
aF0.8928571428571429
aF0.9464285714285714
aF0.9285714285714286
aF0.9464285714285714
aF0.875
aF0.9285714285714286
aF0.5714285714285714
asg10
F0.8892857142857141
ssg14
(dp99
g8
(lp100
F0.26785714285714285
aF0.19642857142857142
aF0.23214285714285715
aF0.17857142857142858
aF0.0
aF0.23214285714285715
aF0.25
aF0.17857142857142858
aF0.23214285714285715
aF0.26785714285714285
aF0.19642857142857142
aF0.23214285714285715
aF0.07142857142857142
aF0.10714285714285714
aF0.23214285714285715
aF0.14285714285714285
aF0.19642857142857142
aF0.25
aF0.21428571428571427
aF0.14285714285714285
aF0.10714285714285714
aF0.16071428571428573
aF0.19642857142857142
aF0.23214285714285715
aF0.26785714285714285
aF0.125
aF0.23214285714285715
aF0.21428571428571427
aF0.25
aF0.14285714285714285
aF0.14285714285714285
aF0.17857142857142858
aF0.23214285714285715
aF0.26785714285714285
aF0.017857142857142856
aF0.32142857142857145
aF0.23214285714285715
aF0.2857142857142857
aF0.32142857142857145
aF0.125
aF0.125
aF0.19642857142857142
aF0.23214285714285715
aF0.23214285714285715
aF0.23214285714285715
aF0.25
aF0.23214285714285715
aF0.16071428571428573
aF0.26785714285714285
aF0.26785714285714285
asg10
F0.20142857142857146
ssa(dp101
g6
(dp102
g8
(lp103
F0.8888888888888888
aF0.9444444444444444
aF0.9074074074074074
aF0.9444444444444444
aF0.8888888888888888
aF0.9074074074074074
aF0.9074074074074074
aF0.8888888888888888
aF0.9444444444444444
aF0.8703703703703703
aF0.8888888888888888
aF0.9259259259259259
aF0.9074074074074074
aF0.9259259259259259
aF0.9629629629629629
aF0.9074074074074074
aF0.8888888888888888
aF0.9074074074074074
aF0.9074074074074074
aF0.9074074074074074
aF0.9444444444444444
aF0.9444444444444444
aF0.9074074074074074
aF0.8888888888888888
aF0.8888888888888888
aF0.9074074074074074
aF0.8888888888888888
aF0.9074074074074074
aF0.8888888888888888
aF0.9444444444444444
aF0.9074074074074074
aF0.9074074074074074
aF0.9074074074074074
aF0.8888888888888888
aF0.9259259259259259
aF0.9074074074074074
aF0.9259259259259259
aF0.9259259259259259
aF0.8888888888888888
aF0.9259259259259259
aF0.8888888888888888
aF0.9074074074074074
aF0.8888888888888888
aF0.9074074074074074
aF0.8703703703703703
aF0.8703703703703703
aF0.8888888888888888
aF0.9074074074074074
aF0.9259259259259259
aF0.8703703703703703
asg10
F0.9074074074074072
ssg11
(dp104
g8
(lp105
F0.8888888888888888
aF0.9444444444444444
aF0.9074074074074074
aF0.9444444444444444
aF0.8888888888888888
aF0.9074074074074074
aF0.9074074074074074
aF0.9259259259259259
aF0.2222222222222222
aF0.8703703703703703
aF0.8888888888888888
aF0.09259259259259259
aF0.9074074074074074
aF0.9444444444444444
aF0.5185185185185185
aF0.9074074074074074
aF0.8888888888888888
aF0.9444444444444444
aF0.9074074074074074
aF0.5
aF0.9444444444444444
aF0.9444444444444444
aF0.9074074074074074
aF0.48148148148148145
aF0.8888888888888888
aF0.9074074074074074
aF0.8888888888888888
aF0.9074074074074074
aF0.8888888888888888
aF0.9444444444444444
aF0.9074074074074074
aF0.9074074074074074
aF0.9074074074074074
aF0.8888888888888888
aF0.2962962962962963
aF0.9074074074074074
aF0.9259259259259259
aF0.9259259259259259
aF0.8888888888888888
aF0.9259259259259259
aF0.8888888888888888
aF0.9074074074074074
aF0.8888888888888888
aF0.2222222222222222
aF0.8703703703703703
aF0.8703703703703703
aF0.8888888888888888
aF0.9074074074074074
aF0.9259259259259259
aF0.8703703703703703
asg10
F0.8266666666666665
ssg14
(dp106
g8
(lp107
F0.16666666666666666
aF0.12962962962962962
aF0.2222222222222222
aF0.2777777777777778
aF0.24074074074074073
aF0.2037037037037037
aF0.14814814814814814
aF0.18518518518518517
aF0.1111111111111111
aF0.24074074074074073
aF0.3333333333333333
aF0.09259259259259259
aF0.14814814814814814
aF0.18518518518518517
aF0.25925925925925924
aF0.1111111111111111
aF0.2037037037037037
aF0.2222222222222222
aF0.1111111111111111
aF0.24074074074074073
aF0.2962962962962963
aF0.18518518518518517
aF0.25925925925925924
aF0.18518518518518517
aF0.25925925925925924
aF0.2962962962962963
aF0.25925925925925924
aF0.14814814814814814
aF0.2037037037037037
aF0.18518518518518517
aF0.2222222222222222
aF0.14814814814814814
aF0.1111111111111111
aF0.2037037037037037
aF0.14814814814814814
aF0.24074074074074073
aF0.16666666666666666
aF0.35185185185185186
aF0.1111111111111111
aF0.3333333333333333
aF0.16666666666666666
aF0.2037037037037037
aF0.14814814814814814
aF0.16666666666666666
aF0.2222222222222222
aF0.18518518518518517
aF0.16666666666666666
aF0.2222222222222222
aF0.3333333333333333
aF0.18518518518518517
asg10
F0.2029629629629629
ssa(dp108
g6
(dp109
g8
(lp110
F0.9245283018867925
aF0.9056603773584906
aF0.8867924528301887
aF0.8867924528301887
aF0.9056603773584906
aF0.8867924528301887
aF0.9056603773584906
aF0.8867924528301887
aF0.9245283018867925
aF0.9056603773584906
aF0.8679245283018868
aF0.9433962264150944
aF0.8867924528301887
aF0.9056603773584906
aF0.9056603773584906
aF0.9056603773584906
aF0.9433962264150944
aF0.8867924528301887
aF0.9245283018867925
aF0.9056603773584906
aF0.9245283018867925
aF0.9056603773584906
aF0.9056603773584906
aF0.8867924528301887
aF0.8867924528301887
aF0.9056603773584906
aF0.9056603773584906
aF0.9433962264150944
aF0.9056603773584906
aF0.9245283018867925
aF0.9056603773584906
aF0.9245283018867925
aF0.9056603773584906
aF0.8679245283018868
aF0.8679245283018868
aF0.8867924528301887
aF0.8867924528301887
aF0.8867924528301887
aF0.5283018867924528
aF0.9622641509433962
aF0.8679245283018868
aF0.9245283018867925
aF0.9056603773584906
aF0.8867924528301887
aF0.8867924528301887
aF0.8867924528301887
aF0.9056603773584906
aF0.9056603773584906
aF0.9056603773584906
aF0.9056603773584906
asg10
F0.8958490566037736
ssg11
(dp111
g8
(lp112
F0.9245283018867925
aF0.16981132075471697
aF0.8867924528301887
aF0.8867924528301887
aF0.9056603773584906
aF0.8867924528301887
aF0.5094339622641509
aF0.8867924528301887
aF0.9433962264150944
aF0.9056603773584906
aF0.8679245283018868
aF0.5283018867924528
aF0.8867924528301887
aF0.9056603773584906
aF0.9056603773584906
aF0.9056603773584906
aF0.39622641509433965
aF0.9056603773584906
aF0.9245283018867925
aF0.18867924528301888
aF0.9245283018867925
aF0.9056603773584906
aF0.9056603773584906
aF0.8867924528301887
aF0.9056603773584906
aF0.9056603773584906
aF0.9056603773584906
aF0.5849056603773585
aF0.9056603773584906
aF0.9245283018867925
aF0.9056603773584906
aF0.37735849056603776
aF0.9056603773584906
aF0.8679245283018868
aF0.8679245283018868
aF0.8867924528301887
aF0.8867924528301887
aF0.8867924528301887
aF0.5094339622641509
aF0.9622641509433962
aF0.8679245283018868
aF0.9245283018867925
aF0.9056603773584906
aF0.8867924528301887
aF0.8867924528301887
aF0.8867924528301887
aF0.9056603773584906
aF0.9056603773584906
aF0.9056603773584906
aF0.9056603773584906
asg10
F0.8222641509433964
ssg14
(dp113
g8
(lp114
F0.1320754716981132
aF0.1509433962264151
aF0.3584905660377358
aF0.18867924528301888
aF0.11320754716981132
aF0.24528301886792453
aF0.20754716981132076
aF0.3018867924528302
aF0.22641509433962265
aF0.11320754716981132
aF0.1320754716981132
aF0.1509433962264151
aF0.2641509433962264
aF0.09433962264150944
aF0.09433962264150944
aF0.33962264150943394
aF0.11320754716981132
aF0.09433962264150944
aF0.1320754716981132
aF0.22641509433962265
aF0.09433962264150944
aF0.1320754716981132
aF0.20754716981132076
aF0.09433962264150944
aF0.2830188679245283
aF0.2641509433962264
aF0.20754716981132076
aF0.2641509433962264
aF0.20754716981132076
aF0.1509433962264151
aF0.32075471698113206
aF0.20754716981132076
aF0.2641509433962264
aF0.24528301886792453
aF0.1509433962264151
aF0.2641509433962264
aF0.09433962264150944
aF0.16981132075471697
aF0.22641509433962265
aF0.22641509433962265
aF0.09433962264150944
aF0.2830188679245283
aF0.16981132075471697
aF0.2830188679245283
aF0.18867924528301888
aF0.2641509433962264
aF0.1509433962264151
aF0.2641509433962264
aF0.32075471698113206
aF0.20754716981132076
asg10
F0.19962264150943398
ssa(dp115
g6
(dp116
g8
(lp117
F0.9019607843137255
aF0.9019607843137255
aF0.8823529411764706
aF0.9215686274509803
aF0.9607843137254902
aF0.9019607843137255
aF0.9607843137254902
aF0.8823529411764706
aF0.8823529411764706
aF0.9019607843137255
aF0.8823529411764706
aF0.9215686274509803
aF0.9215686274509803
aF0.8823529411764706
aF0.9215686274509803
aF0.9215686274509803
aF0.8627450980392157
aF0.9411764705882353
aF0.9215686274509803
aF0.9019607843137255
aF0.8627450980392157
aF0.9019607843137255
aF0.9215686274509803
aF0.9019607843137255
aF0.9411764705882353
aF0.9215686274509803
aF0.9019607843137255
aF0.9411764705882353
aF0.8823529411764706
aF0.9215686274509803
aF0.9411764705882353
aF0.9019607843137255
aF0.8823529411764706
aF0.9215686274509803
aF0.9607843137254902
aF0.9411764705882353
aF0.9215686274509803
aF0.9411764705882353
aF0.9215686274509803
aF0.9411764705882353
aF0.8823529411764706
aF0.9019607843137255
aF0.9215686274509803
aF0.9019607843137255
aF0.8823529411764706
aF0.9215686274509803
aF0.9215686274509803
aF0.9019607843137255
aF0.9019607843137255
aF0.9215686274509803
asg10
F0.9121568627450978
ssg11
(dp118
g8
(lp119
F0.9019607843137255
aF0.9019607843137255
aF0.8823529411764706
aF0.9215686274509803
aF0.5294117647058824
aF0.9019607843137255
aF0.9607843137254902
aF0.8823529411764706
aF0.8823529411764706
aF0.9019607843137255
aF0.8823529411764706
aF0.9215686274509803
aF0.9411764705882353
aF0.8823529411764706
aF0.9215686274509803
aF0.9215686274509803
aF0.8627450980392157
aF0.9411764705882353
aF0.9215686274509803
aF0.9019607843137255
aF0.9019607843137255
aF0.9019607843137255
aF0.9215686274509803
aF0.9019607843137255
aF0.9411764705882353
aF0.9215686274509803
aF0.9019607843137255
aF0.9411764705882353
aF0.9019607843137255
aF0.9215686274509803
aF0.5686274509803921
aF0.9019607843137255
aF0.8823529411764706
aF0.9215686274509803
aF0.9607843137254902
aF0.9411764705882353
aF0.9215686274509803
aF0.9411764705882353
aF0.9215686274509803
aF0.9411764705882353
aF0.8823529411764706
aF0.9019607843137255
aF0.9215686274509803
aF0.9019607843137255
aF0.8823529411764706
aF0.9215686274509803
aF0.9215686274509803
aF0.9019607843137255
aF0.9019607843137255
aF0.9215686274509803
asg10
F0.8976470588235292
ssg14
(dp120
g8
(lp121
F0.3137254901960784
aF0.2549019607843137
aF0.29411764705882354
aF0.2549019607843137
aF0.2549019607843137
aF0.2549019607843137
aF0.29411764705882354
aF0.11764705882352941
aF0.0784313725490196
aF0.09803921568627451
aF0.17647058823529413
aF0.23529411764705882
aF0.27450980392156865
aF0.27450980392156865
aF0.1568627450980392
aF0.35294117647058826
aF0.2549019607843137
aF0.09803921568627451
aF0.19607843137254902
aF0.21568627450980393
aF0.35294117647058826
aF0.27450980392156865
aF0.058823529411764705
aF0.0784313725490196
aF0.27450980392156865
aF0.2549019607843137
aF0.21568627450980393
aF0.11764705882352941
aF0.23529411764705882
aF0.27450980392156865
aF0.21568627450980393
aF0.23529411764705882
aF0.09803921568627451
aF0.17647058823529413
aF0.13725490196078433
aF0.2549019607843137
aF0.17647058823529413
aF0.11764705882352941
aF0.21568627450980393
aF0.21568627450980393
aF0.29411764705882354
aF0.2549019607843137
aF0.1568627450980392
aF0.17647058823529413
aF0.0784313725490196
aF0.11764705882352941
aF0.23529411764705882
aF0.17647058823529413
aF0.19607843137254902
aF0.2549019607843137
asg10
F0.20745098039215676
ssa(dp122
g6
(dp123
g8
(lp124
F0.92
aF0.88
aF0.92
aF0.92
aF0.96
aF0.92
aF0.88
aF0.9
aF0.9
aF0.9
aF0.9
aF0.92
aF0.9
aF0.88
aF0.9
aF0.9
aF0.94
aF0.92
aF0.96
aF0.9
aF0.9
aF0.9
aF0.92
aF0.92
aF0.94
aF0.94
aF0.92
aF0.88
aF0.96
aF0.94
aF0.94
aF0.92
aF0.92
aF0.88
aF0.9
aF0.92
aF0.94
aF0.94
aF0.94
aF0.96
aF0.9
aF0.9
aF0.92
aF0.9
aF0.9
aF0.88
aF0.92
aF0.92
aF0.9
aF0.94
asg10
F0.9156000000000002
ssg11
(dp125
g8
(lp126
F0.92
aF0.88
aF0.92
aF0.92
aF0.96
aF0.92
aF0.88
aF0.9
aF0.9
aF0.9
aF0.9
aF0.92
aF0.9
aF0.88
aF0.9
aF0.9
aF0.56
aF0.92
aF0.96
aF0.9
aF0.9
aF0.9
aF0.92
aF0.92
aF0.94
aF0.94
aF0.92
aF0.88
aF0.96
aF0.94
aF0.94
aF0.92
aF0.92
aF0.88
aF0.9
aF0.92
aF0.94
aF0.94
aF0.94
aF0.96
aF0.92
aF0.9
aF0.92
aF0.9
aF0.9
aF0.88
aF0.92
aF0.64
aF0.9
aF0.94
asg10
F0.9028
ssg14
(dp127
g8
(lp128
F0.1
aF0.16
aF0.26
aF0.16
aF0.22
aF0.22
aF0.1
aF0.22
aF0.16
aF0.14
aF0.2
aF0.28
aF0.18
aF0.28
aF0.32
aF0.0
aF0.24
aF0.28
aF0.06
aF0.16
aF0.24
aF0.2
aF0.06
aF0.2
aF0.2
aF0.22
aF0.26
aF0.16
aF0.32
aF0.14
aF0.0
aF0.22
aF0.26
aF0.32
aF0.16
aF0.18
aF0.28
aF0.2
aF0.1
aF0.28
aF0.18
aF0.24
aF0.08
aF0.18
aF0.14
aF0.14
aF0.18
aF0.24
aF0.3
aF0.08
asg10
F0.19000000000000003
ssa(dp129
g6
(dp130
g8
(lp131
F0.8958333333333334
aF0.8958333333333334
aF0.9166666666666666
aF0.9791666666666666
aF0.875
aF0.875
aF0.9166666666666666
aF0.9375
aF0.9791666666666666
aF0.8958333333333334
aF0.875
aF0.9375
aF0.875
aF0.9375
aF0.8958333333333334
aF0.9375
aF0.9166666666666666
aF0.9166666666666666
aF0.8958333333333334
aF0.9166666666666666
aF0.9375
aF0.9375
aF1.0
aF0.875
aF0.8958333333333334
aF0.9583333333333334
aF0.875
aF0.875
aF0.9583333333333334
aF0.9166666666666666
aF0.875
aF0.8958333333333334
aF0.9375
aF0.9166666666666666
aF0.8958333333333334
aF0.8958333333333334
aF0.9375
aF0.8958333333333334
aF0.875
aF0.9166666666666666
aF0.875
aF0.8958333333333334
aF0.8958333333333334
aF0.8958333333333334
aF0.875
aF0.8958333333333334
aF0.9166666666666666
aF0.8541666666666666
aF0.9166666666666666
aF0.9166666666666666
asg10
F0.9095833333333334
ssg11
(dp132
g8
(lp133
F0.9375
aF0.8958333333333334
aF0.9166666666666666
aF0.4583333333333333
aF0.875
aF0.875
aF0.9166666666666666
aF0.9375
aF0.9791666666666666
aF0.8958333333333334
aF0.875
aF0.9375
aF0.875
aF0.9375
aF0.8958333333333334
aF0.9375
aF0.9166666666666666
aF0.9166666666666666
aF0.8958333333333334
aF0.9166666666666666
aF0.9375
aF0.9375
aF0.22916666666666666
aF0.875
aF0.8958333333333334
aF0.9583333333333334
aF0.8958333333333334
aF0.875
aF0.9583333333333334
aF0.9166666666666666
aF0.875
aF0.8958333333333334
aF0.5
aF0.9166666666666666
aF0.8958333333333334
aF0.9166666666666666
aF0.9375
aF0.8958333333333334
aF0.875
aF0.9166666666666666
aF0.875
aF0.8958333333333334
aF0.8958333333333334
aF0.8958333333333334
aF0.875
aF0.8958333333333334
aF0.9166666666666666
aF0.8541666666666666
aF0.9166666666666666
aF0.9166666666666666
asg10
F0.8766666666666666
ssg14
(dp134
g8
(lp135
F0.1875
aF0.0625
aF0.3125
aF0.22916666666666666
aF0.08333333333333333
aF0.041666666666666664
aF0.16666666666666666
aF0.08333333333333333
aF0.2708333333333333
aF0.25
aF0.14583333333333334
aF0.3125
aF0.10416666666666667
aF0.2916666666666667
aF0.14583333333333334
aF0.3125
aF0.16666666666666666
aF0.3333333333333333
aF0.25
aF0.20833333333333334
aF0.25
aF0.16666666666666666
aF0.14583333333333334
aF0.20833333333333334
aF0.22916666666666666
aF0.16666666666666666
aF0.2708333333333333
aF0.22916666666666666
aF0.20833333333333334
aF0.22916666666666666
aF0.16666666666666666
aF0.22916666666666666
aF0.20833333333333334
aF0.14583333333333334
aF0.3333333333333333
aF0.25
aF0.14583333333333334
aF0.10416666666666667
aF0.22916666666666666
aF0.20833333333333334
aF0.0
aF0.22916666666666666
aF0.25
aF0.125
aF0.2708333333333333
aF0.0
aF0.10416666666666667
aF0.020833333333333332
aF0.041666666666666664
aF0.1875
asg10
F0.18625
ssa(dp136
g6
(dp137
g8
(lp138
F0.8936170212765957
aF0.9361702127659575
aF0.9361702127659575
aF0.9361702127659575
aF0.9361702127659575
aF0.8936170212765957
aF0.9148936170212766
aF0.9361702127659575
aF0.9148936170212766
aF0.8936170212765957
aF0.8936170212765957
aF0.851063829787234
aF0.8723404255319149
aF0.8723404255319149
aF0.9148936170212766
aF0.9148936170212766
aF0.8936170212765957
aF0.8936170212765957
aF0.9148936170212766
aF0.9361702127659575
aF0.9148936170212766
aF0.9148936170212766
aF0.8723404255319149
aF0.9361702127659575
aF0.9361702127659575
aF0.8723404255319149
aF0.8936170212765957
aF0.9148936170212766
aF0.851063829787234
aF0.8936170212765957
aF0.8936170212765957
aF0.9148936170212766
aF0.8936170212765957
aF0.9361702127659575
aF0.8936170212765957
aF0.9148936170212766
aF0.8936170212765957
aF0.9148936170212766
aF0.9148936170212766
aF0.9148936170212766
aF0.8936170212765957
aF0.9148936170212766
aF0.8936170212765957
aF0.9148936170212766
aF0.9361702127659575
aF0.8936170212765957
aF0.9574468085106383
aF0.8936170212765957
aF0.9148936170212766
aF0.9361702127659575
asg10
F0.9076595744680858
ssg11
(dp139
g8
(lp140
F0.8936170212765957
aF0.9361702127659575
aF0.9361702127659575
aF0.9361702127659575
aF0.9361702127659575
aF0.8936170212765957
aF0.9148936170212766
aF0.9361702127659575
aF0.9148936170212766
aF0.9148936170212766
aF0.8936170212765957
aF0.851063829787234
aF0.8723404255319149
aF0.8723404255319149
aF0.9148936170212766
aF0.9148936170212766
aF0.8936170212765957
aF0.8936170212765957
aF0.9148936170212766
aF0.9361702127659575
aF0.9148936170212766
aF0.9148936170212766
aF0.8723404255319149
aF0.9361702127659575
aF0.9361702127659575
aF0.8723404255319149
aF0.8936170212765957
aF0.9148936170212766
aF0.851063829787234
aF0.8936170212765957
aF0.8936170212765957
aF0.9148936170212766
aF0.8936170212765957
aF0.9361702127659575
aF0.8936170212765957
aF0.9148936170212766
aF0.8936170212765957
aF0.9148936170212766
aF0.9148936170212766
aF0.9361702127659575
aF0.8936170212765957
aF0.5106382978723404
aF0.8936170212765957
aF0.9148936170212766
aF0.9574468085106383
aF0.8936170212765957
aF0.9574468085106383
aF0.8936170212765957
aF0.9148936170212766
aF0.9361702127659575
asg10
F0.9008510638297877
ssg14
(dp141
g8
(lp142
F0.2553191489361702
aF0.14893617021276595
aF0.19148936170212766
aF0.0851063829787234
aF0.23404255319148937
aF0.14893617021276595
aF0.0851063829787234
aF0.2765957446808511
aF0.2553191489361702
aF0.2765957446808511
aF0.2978723404255319
aF0.46808510638297873
aF0.3191489361702128
aF0.19148936170212766
aF0.06382978723404255
aF0.1276595744680851
aF0.0851063829787234
aF0.3191489361702128
aF0.14893617021276595
aF0.19148936170212766
aF0.10638297872340426
aF0.14893617021276595
aF0.3191489361702128
aF0.14893617021276595
aF0.1276595744680851
aF0.0851063829787234
aF0.06382978723404255
aF0.3191489361702128
aF0.06382978723404255
aF0.1702127659574468
aF0.2978723404255319
aF0.2765957446808511
aF0.2765957446808511
aF0.23404255319148937
aF0.1276595744680851
aF0.3404255319148936
aF0.10638297872340426
aF0.2127659574468085
aF0.2127659574468085
aF0.2978723404255319
aF0.3404255319148936
aF0.2127659574468085
aF0.0
aF0.2978723404255319
aF0.23404255319148937
aF0.23404255319148937
aF0.2978723404255319
aF0.2127659574468085
aF0.0
aF0.2553191489361702
asg10
F0.20382978723404255
ssa(dp143
g6
(dp144
g8
(lp145
F0.9333333333333333
aF0.8888888888888888
aF0.8666666666666667
aF0.8888888888888888
aF0.8666666666666667
aF0.9111111111111111
aF0.8666666666666667
aF0.8666666666666667
aF0.9333333333333333
aF0.9111111111111111
aF0.9111111111111111
aF0.9333333333333333
aF0.9333333333333333
aF0.8888888888888888
aF0.8666666666666667
aF0.8444444444444444
aF0.8888888888888888
aF0.9333333333333333
aF0.9111111111111111
aF0.9555555555555556
aF0.8888888888888888
aF0.9555555555555556
aF0.9111111111111111
aF0.9111111111111111
aF0.8888888888888888
aF0.9111111111111111
aF0.8888888888888888
aF0.9111111111111111
aF0.8666666666666667
aF0.9333333333333333
aF0.8666666666666667
aF0.9333333333333333
aF0.8888888888888888
aF0.8888888888888888
aF0.9333333333333333
aF0.9333333333333333
aF0.9555555555555556
aF0.8888888888888888
aF0.8666666666666667
aF0.8888888888888888
aF0.9111111111111111
aF0.8888888888888888
aF0.9555555555555556
aF0.9111111111111111
aF0.9111111111111111
aF0.9111111111111111
aF0.9111111111111111
aF0.9111111111111111
aF0.9111111111111111
aF0.8888888888888888
asg10
F0.9044444444444444
ssg11
(dp146
g8
(lp147
F0.9333333333333333
aF0.8888888888888888
aF0.8666666666666667
aF0.8888888888888888
aF0.8666666666666667
aF0.5111111111111111
aF0.8666666666666667
aF0.8666666666666667
aF0.9333333333333333
aF0.9111111111111111
aF0.9111111111111111
aF0.9333333333333333
aF0.9333333333333333
aF0.8888888888888888
aF0.8666666666666667
aF0.8444444444444444
aF0.8888888888888888
aF0.9333333333333333
aF0.9111111111111111
aF0.9555555555555556
aF0.8888888888888888
aF0.9555555555555556
aF0.9111111111111111
aF0.9111111111111111
aF0.8888888888888888
aF0.9111111111111111
aF0.8888888888888888
aF0.9111111111111111
aF0.8666666666666667
aF0.9333333333333333
aF0.8666666666666667
aF0.9333333333333333
aF0.8888888888888888
aF0.8888888888888888
aF0.9333333333333333
aF0.9333333333333333
aF1.0
aF0.8888888888888888
aF0.8666666666666667
aF0.8888888888888888
aF0.9111111111111111
aF0.8888888888888888
aF0.9555555555555556
aF0.9111111111111111
aF0.9333333333333333
aF0.9111111111111111
aF0.9111111111111111
aF0.9111111111111111
aF0.9111111111111111
aF0.8888888888888888
asg10
F0.8977777777777777
ssg14
(dp148
g8
(lp149
F0.06666666666666667
aF0.3111111111111111
aF0.0
aF0.37777777777777777
aF0.15555555555555556
aF0.17777777777777778
aF0.4666666666666667
aF0.17777777777777778
aF0.4222222222222222
aF0.24444444444444444
aF0.4222222222222222
aF0.28888888888888886
aF0.15555555555555556
aF0.0
aF0.15555555555555556
aF0.4888888888888889
aF0.26666666666666666
aF0.3111111111111111
aF0.06666666666666667
aF0.24444444444444444
aF0.15555555555555556
aF0.1111111111111111
aF0.13333333333333333
aF0.17777777777777778
aF0.13333333333333333
aF0.2222222222222222
aF0.24444444444444444
aF0.3111111111111111
aF0.06666666666666667
aF0.26666666666666666
aF0.0
aF0.35555555555555557
aF0.3111111111111111
aF0.06666666666666667
aF0.24444444444444444
aF0.06666666666666667
aF0.15555555555555556
aF0.2
aF0.2222222222222222
aF0.1111111111111111
aF0.17777777777777778
aF0.35555555555555557
aF0.24444444444444444
aF0.06666666666666667
aF0.2222222222222222
aF0.4222222222222222
aF0.1111111111111111
aF0.06666666666666667
aF0.0
aF0.37777777777777777
asg10
F0.2079999999999999
ssa(dp150
g6
(dp151
g8
(lp152
F0.8636363636363636
aF0.9545454545454546
aF0.8863636363636364
aF0.9090909090909091
aF0.9090909090909091
aF0.9318181818181818
aF0.9318181818181818
aF0.9318181818181818
aF0.8863636363636364
aF0.9090909090909091
aF0.8863636363636364
aF0.9090909090909091
aF0.9318181818181818
aF0.8863636363636364
aF0.9318181818181818
aF0.9090909090909091
aF0.9090909090909091
aF0.8863636363636364
aF0.8863636363636364
aF0.9090909090909091
aF0.8863636363636364
aF0.9545454545454546
aF0.9318181818181818
aF0.8863636363636364
aF0.9090909090909091
aF0.8636363636363636
aF0.8863636363636364
aF0.9090909090909091
aF0.9318181818181818
aF0.9090909090909091
aF0.9090909090909091
aF0.9090909090909091
aF0.9772727272727273
aF0.9090909090909091
aF0.9545454545454546
aF0.9772727272727273
aF0.9090909090909091
aF0.9318181818181818
aF0.8636363636363636
aF0.9090909090909091
aF0.9090909090909091
aF0.8409090909090909
aF0.8863636363636364
aF0.9318181818181818
aF0.8863636363636364
aF0.9090909090909091
aF0.8863636363636364
aF0.8636363636363636
aF0.9318181818181818
aF0.9090909090909091
asg10
F0.9086363636363634
ssg11
(dp153
g8
(lp154
F0.8636363636363636
aF0.9772727272727273
aF0.8863636363636364
aF0.9090909090909091
aF0.9090909090909091
aF0.9318181818181818
aF0.9772727272727273
aF0.9318181818181818
aF0.8863636363636364
aF0.9090909090909091
aF0.8863636363636364
aF0.9090909090909091
aF0.9318181818181818
aF0.8863636363636364
aF0.9318181818181818
aF0.9090909090909091
aF0.9090909090909091
aF0.3409090909090909
aF0.8863636363636364
aF0.9090909090909091
aF0.8863636363636364
aF0.9545454545454546
aF0.9318181818181818
aF0.8863636363636364
aF0.9090909090909091
aF0.8636363636363636
aF0.8863636363636364
aF0.9090909090909091
aF0.9318181818181818
aF0.9545454545454546
aF0.9090909090909091
aF0.9090909090909091
aF0.9772727272727273
aF0.9090909090909091
aF0.9545454545454546
aF0.9772727272727273
aF0.9090909090909091
aF0.9318181818181818
aF0.8636363636363636
aF0.9545454545454546
aF0.9318181818181818
aF0.8409090909090909
aF0.8863636363636364
aF0.9318181818181818
aF0.8863636363636364
aF0.9090909090909091
aF0.8863636363636364
aF0.8636363636363636
aF0.9318181818181818
aF0.9090909090909091
asg10
F0.9013636363636361
ssg14
(dp155
g8
(lp156
F0.13636363636363635
aF0.1590909090909091
aF0.09090909090909091
aF0.06818181818181818
aF0.4318181818181818
aF0.3181818181818182
aF0.11363636363636363
aF0.29545454545454547
aF0.0
aF0.5681818181818182
aF0.09090909090909091
aF0.11363636363636363
aF0.5227272727272727
aF0.11363636363636363
aF0.4318181818181818
aF0.22727272727272727
aF0.20454545454545456
aF0.045454545454545456
aF0.0
aF0.22727272727272727
aF0.2727272727272727
aF0.22727272727272727
aF0.13636363636363635
aF0.4090909090909091
aF0.11363636363636363
aF0.38636363636363635
aF0.11363636363636363
aF0.3409090909090909
aF0.0
aF0.1590909090909091
aF0.06818181818181818
aF0.25
aF0.09090909090909091
aF0.0
aF0.3181818181818182
aF0.13636363636363635
aF0.38636363636363635
aF0.1590909090909091
aF0.29545454545454547
aF0.18181818181818182
aF0.1590909090909091
aF0.20454545454545456
aF0.18181818181818182
aF0.0
aF0.4318181818181818
aF0.13636363636363635
aF0.13636363636363635
aF0.11363636363636363
aF0.11363636363636363
aF0.06818181818181818
asg10
F0.195
ssa(dp157
g6
(dp158
g8
(lp159
F0.9523809523809523
aF0.8809523809523809
aF0.8809523809523809
aF0.8809523809523809
aF0.9047619047619048
aF0.8571428571428571
aF0.9285714285714286
aF0.9047619047619048
aF0.9047619047619048
aF0.9285714285714286
aF0.8809523809523809
aF0.9285714285714286
aF0.9285714285714286
aF0.9047619047619048
aF0.9047619047619048
aF0.8809523809523809
aF0.9523809523809523
aF0.8571428571428571
aF0.9047619047619048
aF0.9285714285714286
aF0.9047619047619048
aF0.8809523809523809
aF0.9285714285714286
aF0.8809523809523809
aF0.8571428571428571
aF0.9285714285714286
aF0.9285714285714286
aF0.9047619047619048
aF0.9047619047619048
aF0.8809523809523809
aF0.9047619047619048
aF0.9285714285714286
aF0.8333333333333334
aF0.9285714285714286
aF0.9285714285714286
aF0.9285714285714286
aF0.9285714285714286
aF0.9523809523809523
aF0.8571428571428571
aF0.9523809523809523
aF0.9047619047619048
aF0.9285714285714286
aF0.9047619047619048
aF0.8571428571428571
aF0.8571428571428571
aF0.8571428571428571
aF0.9285714285714286
aF0.8571428571428571
aF0.9047619047619048
aF0.9285714285714286
asg10
F0.9033333333333329
ssg11
(dp160
g8
(lp161
F0.9523809523809523
aF0.8809523809523809
aF0.8809523809523809
aF0.8809523809523809
aF0.9047619047619048
aF0.8571428571428571
aF0.9285714285714286
aF0.9047619047619048
aF0.9047619047619048
aF0.9285714285714286
aF0.8809523809523809
aF0.9523809523809523
aF0.9285714285714286
aF0.9047619047619048
aF0.9285714285714286
aF0.8809523809523809
aF0.9523809523809523
aF0.8571428571428571
aF0.9047619047619048
aF0.9285714285714286
aF0.9047619047619048
aF0.8809523809523809
aF0.9285714285714286
aF0.9047619047619048
aF0.8571428571428571
aF0.9285714285714286
aF0.9285714285714286
aF0.9047619047619048
aF0.9047619047619048
aF0.8809523809523809
aF0.9047619047619048
aF0.9285714285714286
aF0.8333333333333334
aF0.9285714285714286
aF0.9285714285714286
aF0.9285714285714286
aF0.9285714285714286
aF0.19047619047619047
aF0.8571428571428571
aF0.9523809523809523
aF0.9047619047619048
aF0.9285714285714286
aF0.9047619047619048
aF0.8571428571428571
aF0.8809523809523809
aF0.8571428571428571
aF0.9523809523809523
aF0.8571428571428571
aF0.9047619047619048
aF0.9285714285714286
asg10
F0.89047619047619
ssg14
(dp162
g8
(lp163
F0.047619047619047616
aF0.19047619047619047
aF0.09523809523809523
aF0.4523809523809524
aF0.35714285714285715
aF0.5476190476190477
aF0.16666666666666666
aF0.11904761904761904
aF0.35714285714285715
aF0.42857142857142855
aF0.21428571428571427
aF0.09523809523809523
aF0.21428571428571427
aF0.0
aF0.38095238095238093
aF0.30952380952380953
aF0.38095238095238093
aF0.8571428571428571
aF0.14285714285714285
aF0.42857142857142855
aF0.07142857142857142
aF0.30952380952380953
aF0.19047619047619047
aF0.5952380952380952
aF0.2619047619047619
aF0.3333333333333333
aF0.5238095238095238
aF0.38095238095238093
aF0.2857142857142857
aF0.0
aF0.35714285714285715
aF0.2857142857142857
aF0.35714285714285715
aF0.40476190476190477
aF0.11904761904761904
aF0.11904761904761904
aF0.09523809523809523
aF0.11904761904761904
aF0.11904761904761904
aF0.09523809523809523
aF0.3333333333333333
aF0.35714285714285715
aF0.2857142857142857
aF0.5238095238095238
aF0.2857142857142857
aF0.23809523809523808
aF0.2619047619047619
aF0.14285714285714285
aF0.30952380952380953
aF0.16666666666666666
asg10
F0.27428571428571435
ssa(dp164
g6
(dp165
g8
(lp166
F0.926829268292683
aF0.8536585365853658
aF0.8780487804878049
aF0.926829268292683
aF0.926829268292683
aF0.9512195121951219
aF0.926829268292683
aF0.926829268292683
aF0.9512195121951219
aF0.9024390243902439
aF0.9024390243902439
aF0.9024390243902439
aF0.926829268292683
aF0.9024390243902439
aF0.9512195121951219
aF0.926829268292683
aF0.8780487804878049
aF0.8780487804878049
aF0.9512195121951219
aF0.9024390243902439
aF0.926829268292683
aF0.9024390243902439
aF0.8780487804878049
aF0.8780487804878049
aF0.8536585365853658
aF0.9024390243902439
aF0.8780487804878049
aF0.8536585365853658
aF0.9024390243902439
aF0.8780487804878049
aF0.9024390243902439
aF0.926829268292683
aF0.926829268292683
aF0.8780487804878049
aF0.9024390243902439
aF0.9024390243902439
aF0.9024390243902439
aF0.8780487804878049
aF0.926829268292683
aF0.8780487804878049
aF0.9512195121951219
aF0.926829268292683
aF0.926829268292683
aF0.9512195121951219
aF0.8780487804878049
aF0.9024390243902439
aF0.926829268292683
aF0.9024390243902439
aF0.9024390243902439
aF1.0
asg10
F0.9087804878048786
ssg11
(dp167
g8
(lp168
F0.926829268292683
aF0.8536585365853658
aF0.8780487804878049
aF0.926829268292683
aF0.926829268292683
aF0.9512195121951219
aF0.926829268292683
aF0.926829268292683
aF0.5365853658536586
aF0.36585365853658536
aF0.9024390243902439
aF0.9024390243902439
aF0.926829268292683
aF0.9024390243902439
aF0.9512195121951219
aF0.926829268292683
aF0.8780487804878049
aF0.8780487804878049
aF0.9512195121951219
aF0.9024390243902439
aF0.926829268292683
aF0.926829268292683
aF0.8780487804878049
aF0.8780487804878049
aF0.8536585365853658
aF0.9024390243902439
aF0.8780487804878049
aF0.8536585365853658
aF0.9024390243902439
aF0.8780487804878049
aF0.9024390243902439
aF0.926829268292683
aF0.926829268292683
aF0.8780487804878049
aF0.9024390243902439
aF0.9024390243902439
aF0.9024390243902439
aF0.8780487804878049
aF0.926829268292683
aF0.8780487804878049
aF0.9512195121951219
aF0.926829268292683
aF0.926829268292683
aF0.9512195121951219
aF0.8780487804878049
aF0.9024390243902439
aF0.926829268292683
aF0.9024390243902439
aF0.9024390243902439
aF1.0
asg10
F0.8902439024390248
ssg14
(dp169
g8
(lp170
F0.36585365853658536
aF0.4146341463414634
aF0.0
aF0.07317073170731707
aF0.21951219512195122
aF0.12195121951219512
aF0.17073170731707318
aF0.14634146341463414
aF0.14634146341463414
aF0.36585365853658536
aF0.12195121951219512
aF0.0
aF0.0
aF0.5609756097560976
aF0.0975609756097561
aF0.17073170731707318
aF0.4878048780487805
aF0.3902439024390244
aF0.14634146341463414
aF0.3902439024390244
aF0.2682926829268293
aF0.14634146341463414
aF0.14634146341463414
aF0.34146341463414637
aF0.4634146341463415
aF0.3170731707317073
aF0.0
aF0.36585365853658536
aF0.0
aF0.21951219512195122
aF0.34146341463414637
aF0.34146341463414637
aF0.1951219512195122
aF0.43902439024390244
aF0.4634146341463415
aF0.34146341463414637
aF0.36585365853658536
aF0.3170731707317073
aF0.21951219512195122
aF0.21951219512195122
aF0.14634146341463414
aF0.0975609756097561
aF0.2926829268292683
aF0.0975609756097561
aF0.4634146341463415
aF0.36585365853658536
aF0.2682926829268293
aF0.12195121951219512
aF0.34146341463414637
aF0.0975609756097561
asg10
F0.24390243902439024
ssa(dp171
g6
(dp172
g8
(lp173
F0.8974358974358975
aF0.8974358974358975
aF0.8717948717948718
aF0.9487179487179487
aF0.8974358974358975
aF0.9230769230769231
aF0.8974358974358975
aF0.9230769230769231
aF0.8974358974358975
aF0.9230769230769231
aF0.8717948717948718
aF0.9230769230769231
aF0.8717948717948718
aF0.8974358974358975
aF0.9487179487179487
aF0.8974358974358975
aF0.8717948717948718
aF0.8717948717948718
aF0.8461538461538461
aF0.8974358974358975
aF0.8974358974358975
aF0.8717948717948718
aF0.8974358974358975
aF0.9487179487179487
aF0.9487179487179487
aF0.8974358974358975
aF0.8974358974358975
aF0.8717948717948718
aF0.9743589743589743
aF0.8717948717948718
aF0.8461538461538461
aF0.9230769230769231
aF0.9230769230769231
aF0.8974358974358975
aF0.8717948717948718
aF0.9487179487179487
aF0.8974358974358975
aF1.0
aF0.8717948717948718
aF0.8461538461538461
aF0.9743589743589743
aF0.8717948717948718
aF0.8974358974358975
aF0.9487179487179487
aF0.8974358974358975
aF0.8974358974358975
aF0.9230769230769231
aF0.8974358974358975
aF0.9230769230769231
aF0.9487179487179487
asg10
F0.905128205128205
ssg11
(dp174
g8
(lp175
F0.8974358974358975
aF0.8974358974358975
aF0.8717948717948718
aF0.9487179487179487
aF0.8974358974358975
aF0.9230769230769231
aF0.8974358974358975
aF0.9230769230769231
aF0.8974358974358975
aF0.9230769230769231
aF0.8717948717948718
aF0.9230769230769231
aF0.8717948717948718
aF0.8974358974358975
aF0.9487179487179487
aF0.8974358974358975
aF0.8717948717948718
aF0.8717948717948718
aF0.8461538461538461
aF0.8974358974358975
aF0.8974358974358975
aF0.8717948717948718
aF0.8974358974358975
aF0.9487179487179487
aF0.9487179487179487
aF0.8974358974358975
aF0.8974358974358975
aF0.8717948717948718
aF0.9743589743589743
aF0.8717948717948718
aF0.8461538461538461
aF0.9230769230769231
aF0.9230769230769231
aF0.8974358974358975
aF0.8717948717948718
aF0.9743589743589743
aF0.8974358974358975
aF1.0
aF0.8717948717948718
aF0.8461538461538461
aF0.9743589743589743
aF0.8717948717948718
aF0.8974358974358975
aF0.9487179487179487
aF0.8974358974358975
aF0.8974358974358975
aF0.9230769230769231
aF0.8974358974358975
aF0.9230769230769231
aF0.9487179487179487
asg10
F0.9056410256410256
ssg14
(dp176
g8
(lp177
F0.358974358974359
aF0.48717948717948717
aF0.8717948717948718
aF0.20512820512820512
aF0.6153846153846154
aF0.41025641025641024
aF0.9487179487179487
aF0.41025641025641024
aF0.6410256410256411
aF0.4358974358974359
aF0.38461538461538464
aF0.02564102564102564
aF0.20512820512820512
aF0.3333333333333333
aF0.38461538461538464
aF0.6153846153846154
aF0.3333333333333333
aF0.5384615384615384
aF0.8461538461538461
aF0.6666666666666666
aF0.358974358974359
aF0.8717948717948718
aF0.4358974358974359
aF0.0
aF0.10256410256410256
aF0.5897435897435898
aF0.3333333333333333
aF0.15384615384615385
aF0.48717948717948717
aF0.8974358974358975
aF0.8461538461538461
aF0.9743589743589743
aF0.0
aF0.41025641025641024
aF0.20512820512820512
aF0.38461538461538464
aF0.358974358974359
aF0.05128205128205128
aF0.41025641025641024
aF0.46153846153846156
aF0.05128205128205128
aF0.38461538461538464
aF0.6923076923076923
aF0.3076923076923077
aF0.20512820512820512
aF0.358974358974359
aF0.0
aF0.3076923076923077
aF0.23076923076923078
aF0.28205128205128205
asg10
F0.4174358974358972
ssa(dp178
g6
(dp179
g8
(lp180
F0.8157894736842105
aF0.868421052631579
aF0.868421052631579
aF0.9210526315789473
aF0.9473684210526315
aF0.9736842105263158
aF0.9210526315789473
aF0.8947368421052632
aF0.8947368421052632
aF0.9473684210526315
aF0.9210526315789473
aF0.8947368421052632
aF0.8947368421052632
aF0.8947368421052632
aF0.868421052631579
aF0.8947368421052632
aF0.8947368421052632
aF0.8947368421052632
aF0.8947368421052632
aF0.9210526315789473
aF0.9210526315789473
aF0.9210526315789473
aF0.9210526315789473
aF0.8421052631578947
aF0.9210526315789473
aF0.8947368421052632
aF0.9210526315789473
aF0.9210526315789473
aF0.8947368421052632
aF0.868421052631579
aF0.868421052631579
aF0.9210526315789473
aF0.9210526315789473
aF0.9210526315789473
aF0.9736842105263158
aF0.8947368421052632
aF0.8421052631578947
aF0.868421052631579
aF0.8947368421052632
aF0.868421052631579
aF0.868421052631579
aF0.9210526315789473
aF0.9210526315789473
aF0.9473684210526315
aF0.8947368421052632
aF0.9473684210526315
aF0.8947368421052632
aF0.8947368421052632
aF0.8421052631578947
aF0.9210526315789473
asg10
F0.9015789473684213
ssg11
(dp181
g8
(lp182
F0.8157894736842105
aF0.868421052631579
aF0.868421052631579
aF0.9210526315789473
aF0.9473684210526315
aF0.9736842105263158
aF0.9210526315789473
aF0.8947368421052632
aF0.8947368421052632
aF0.9473684210526315
aF0.9210526315789473
aF0.8947368421052632
aF0.8947368421052632
aF0.8947368421052632
aF0.868421052631579
aF0.8947368421052632
aF0.8947368421052632
aF0.8947368421052632
aF0.8947368421052632
aF0.9210526315789473
aF0.9210526315789473
aF0.9210526315789473
aF0.9210526315789473
aF0.8421052631578947
aF0.9210526315789473
aF0.8947368421052632
aF0.9210526315789473
aF0.9210526315789473
aF0.8947368421052632
aF0.868421052631579
aF0.868421052631579
aF0.9210526315789473
aF0.9473684210526315
aF0.9210526315789473
aF0.9736842105263158
aF0.8947368421052632
aF0.8421052631578947
aF0.868421052631579
aF0.8947368421052632
aF0.868421052631579
aF0.868421052631579
aF0.9210526315789473
aF0.9210526315789473
aF0.9473684210526315
aF0.8947368421052632
aF0.9473684210526315
aF0.8947368421052632
aF0.8947368421052632
aF0.8421052631578947
aF0.9210526315789473
asg10
F0.9021052631578947
ssg14
(dp183
g8
(lp184
F0.8157894736842105
aF0.42105263157894735
aF0.42105263157894735
aF0.9210526315789473
aF0.5263157894736842
aF0.23684210526315788
aF0.2894736842105263
aF0.6052631578947368
aF0.631578947368421
aF0.0
aF0.0
aF0.42105263157894735
aF0.3684210526315789
aF0.13157894736842105
aF0.39473684210526316
aF0.23684210526315788
aF0.631578947368421
aF0.07894736842105263
aF0.9473684210526315
aF0.4473684210526316
aF0.9210526315789473
aF0.4473684210526316
aF0.9210526315789473
aF0.39473684210526316
aF0.21052631578947367
aF0.5526315789473685
aF0.0
aF0.3157894736842105
aF0.5526315789473685
aF0.3684210526315789
aF0.868421052631579
aF0.6052631578947368
aF0.34210526315789475
aF0.9210526315789473
aF0.34210526315789475
aF0.9210526315789473
aF0.6578947368421053
aF0.868421052631579
aF0.2894736842105263
aF0.5526315789473685
aF0.2631578947368421
aF0.0
aF0.42105263157894735
aF0.42105263157894735
aF0.47368421052631576
aF0.10526315789473684
aF0.8947368421052632
aF0.3157894736842105
aF0.47368421052631576
aF0.4473684210526316
asg10
F0.46789473684210536
ssa(dp185
g6
(dp186
g8
(lp187
F0.8888888888888888
aF0.8888888888888888
aF0.9166666666666666
aF0.8888888888888888
aF0.8611111111111112
aF0.9166666666666666
aF0.9444444444444444
aF0.9444444444444444
aF0.9444444444444444
aF0.8611111111111112
aF0.9166666666666666
aF0.9166666666666666
aF0.8611111111111112
aF0.9444444444444444
aF0.9166666666666666
aF0.8611111111111112
aF0.8888888888888888
aF0.8611111111111112
aF0.9166666666666666
aF0.8888888888888888
aF0.9722222222222222
aF0.9722222222222222
aF0.9166666666666666
aF0.9444444444444444
aF0.8888888888888888
aF0.9444444444444444
aF0.8888888888888888
aF0.8888888888888888
aF0.9166666666666666
aF0.9444444444444444
aF0.9444444444444444
aF0.8611111111111112
aF0.9444444444444444
aF0.8888888888888888
aF0.9166666666666666
aF0.9722222222222222
aF0.8888888888888888
aF0.8888888888888888
aF0.8888888888888888
aF0.8888888888888888
aF0.8888888888888888
aF0.9166666666666666
aF0.9722222222222222
aF0.9166666666666666
aF0.9444444444444444
aF0.9166666666666666
aF0.8888888888888888
aF0.9166666666666666
aF0.9166666666666666
aF0.9166666666666666
asg10
F0.9116666666666658
ssg11
(dp188
g8
(lp189
F0.8888888888888888
aF0.8888888888888888
aF0.9166666666666666
aF0.8888888888888888
aF0.8611111111111112
aF0.9166666666666666
aF0.9444444444444444
aF0.9444444444444444
aF0.9444444444444444
aF0.8611111111111112
aF0.9166666666666666
aF0.9166666666666666
aF0.8611111111111112
aF0.9444444444444444
aF0.9166666666666666
aF0.8611111111111112
aF0.8888888888888888
aF0.8611111111111112
aF0.9166666666666666
aF0.8888888888888888
aF0.9722222222222222
aF0.9722222222222222
aF0.9166666666666666
aF0.9444444444444444
aF0.8888888888888888
aF0.9444444444444444
aF0.8888888888888888
aF0.8888888888888888
aF0.9166666666666666
aF0.9444444444444444
aF0.9444444444444444
aF0.8611111111111112
aF0.9444444444444444
aF0.8888888888888888
aF0.9166666666666666
aF0.9722222222222222
aF0.8888888888888888
aF0.8888888888888888
aF0.8888888888888888
aF0.8888888888888888
aF0.8888888888888888
aF0.9166666666666666
aF0.9722222222222222
aF0.9166666666666666
aF0.9444444444444444
aF0.9166666666666666
aF0.8888888888888888
aF0.9166666666666666
aF0.9166666666666666
aF0.9166666666666666
asg10
F0.9116666666666658
ssg14
(dp190
g8
(lp191
F0.16666666666666666
aF0.9166666666666666
aF0.25
aF0.4722222222222222
aF0.8611111111111112
aF0.3611111111111111
aF0.9444444444444444
aF0.9444444444444444
aF0.3055555555555556
aF0.1111111111111111
aF0.5833333333333334
aF0.4722222222222222
aF0.25
aF1.0
aF0.9166666666666666
aF0.3333333333333333
aF0.4722222222222222
aF0.3611111111111111
aF0.0
aF0.9166666666666666
aF0.9722222222222222
aF0.8611111111111112
aF0.4722222222222222
aF0.4166666666666667
aF0.3055555555555556
aF0.1111111111111111
aF0.8888888888888888
aF0.5833333333333334
aF0.2222222222222222
aF0.3611111111111111
aF0.8333333333333334
aF0.8888888888888888
aF0.3333333333333333
aF0.3888888888888889
aF0.5555555555555556
aF0.3055555555555556
aF0.5
aF0.8888888888888888
aF0.8888888888888888
aF0.5277777777777778
aF0.8888888888888888
aF0.9166666666666666
aF0.3888888888888889
aF0.9166666666666666
aF0.75
aF0.9444444444444444
aF0.8055555555555556
aF0.9166666666666666
aF0.19444444444444445
aF0.16666666666666666
asg10
F0.5766666666666667
ssa(dp192
g6
(dp193
g8
(lp194
F0.9714285714285714
aF0.8857142857142857
aF0.9428571428571428
aF0.9142857142857143
aF0.9142857142857143
aF0.9142857142857143
aF0.8857142857142857
aF0.8857142857142857
aF0.9142857142857143
aF0.9142857142857143
aF0.9142857142857143
aF0.9142857142857143
aF0.8571428571428571
aF0.8857142857142857
aF0.9142857142857143
aF0.9142857142857143
aF0.8571428571428571
aF0.8857142857142857
aF0.8857142857142857
aF0.8285714285714286
aF0.9428571428571428
aF0.8857142857142857
aF0.8857142857142857
aF0.9142857142857143
aF0.9142857142857143
aF0.9428571428571428
aF0.9142857142857143
aF0.9428571428571428
aF0.9428571428571428
aF0.8857142857142857
aF0.8857142857142857
aF0.9142857142857143
aF0.8857142857142857
aF0.9142857142857143
aF0.9428571428571428
aF0.8857142857142857
aF0.8857142857142857
aF0.9142857142857143
aF0.9142857142857143
aF0.9142857142857143
aF0.8857142857142857
aF0.9428571428571428
aF0.8571428571428571
aF0.9428571428571428
aF0.8857142857142857
aF0.8857142857142857
aF0.8571428571428571
aF0.9428571428571428
aF0.8857142857142857
aF0.9714285714285714
asg10
F0.9057142857142856
ssg11
(dp195
g8
(lp196
F0.9714285714285714
aF0.8857142857142857
aF0.9428571428571428
aF0.9142857142857143
aF0.9142857142857143
aF0.9142857142857143
aF0.8857142857142857
aF0.8857142857142857
aF0.9142857142857143
aF0.9142857142857143
aF0.9142857142857143
aF0.9142857142857143
aF0.8857142857142857
aF0.8857142857142857
aF0.9142857142857143
aF0.9142857142857143
aF0.8571428571428571
aF0.8857142857142857
aF0.8857142857142857
aF0.8285714285714286
aF0.9428571428571428
aF0.8857142857142857
aF0.8857142857142857
aF0.9142857142857143
aF0.9142857142857143
aF0.9428571428571428
aF0.9142857142857143
aF0.9428571428571428
aF0.9428571428571428
aF0.8857142857142857
aF0.8857142857142857
aF0.9142857142857143
aF0.8857142857142857
aF0.9142857142857143
aF0.9428571428571428
aF0.8857142857142857
aF0.8857142857142857
aF0.9142857142857143
aF0.9142857142857143
aF0.9142857142857143
aF0.8857142857142857
aF0.9428571428571428
aF0.8571428571428571
aF0.9428571428571428
aF0.8857142857142857
aF0.8857142857142857
aF0.8571428571428571
aF0.9428571428571428
aF0.8857142857142857
aF0.9714285714285714
asg10
F0.906285714285714
ssg14
(dp197
g8
(lp198
F0.9142857142857143
aF0.8857142857142857
aF0.9428571428571428
aF0.2571428571428571
aF0.6857142857142857
aF0.22857142857142856
aF0.8857142857142857
aF0.42857142857142855
aF0.9142857142857143
aF0.9142857142857143
aF0.5714285714285714
aF0.8857142857142857
aF0.8857142857142857
aF0.8857142857142857
aF0.9142857142857143
aF0.37142857142857144
aF0.8571428571428571
aF0.8857142857142857
aF0.8857142857142857
aF0.8285714285714286
aF0.2857142857142857
aF0.22857142857142856
aF0.8857142857142857
aF0.9142857142857143
aF0.17142857142857143
aF0.4857142857142857
aF0.9142857142857143
aF0.8285714285714286
aF0.5142857142857142
aF0.45714285714285713
aF0.8857142857142857
aF0.5142857142857142
aF0.9142857142857143
aF0.5714285714285714
aF0.9428571428571428
aF0.8857142857142857
aF0.2857142857142857
aF0.9142857142857143
aF0.2857142857142857
aF0.9428571428571428
aF0.0
aF0.9428571428571428
aF0.9142857142857143
aF0.9428571428571428
aF0.3142857142857143
aF0.5428571428571428
aF0.8857142857142857
aF0.2
aF0.8857142857142857
aF0.45714285714285713
asg10
F0.6788571428571428
ssa(dp199
g6
(dp200
g8
(lp201
F0.9393939393939394
aF0.9090909090909091
aF0.8484848484848485
aF0.8787878787878788
aF0.9090909090909091
aF0.9090909090909091
aF0.9090909090909091
aF0.8787878787878788
aF0.8787878787878788
aF0.8484848484848485
aF0.9090909090909091
aF0.8787878787878788
aF0.9090909090909091
aF0.8787878787878788
aF0.9090909090909091
aF1.0
aF0.8787878787878788
aF0.9393939393939394
aF0.9090909090909091
aF0.8787878787878788
aF0.8787878787878788
aF0.9696969696969697
aF0.9090909090909091
aF0.9696969696969697
aF0.9393939393939394
aF0.9393939393939394
aF0.9090909090909091
aF0.9393939393939394
aF0.9393939393939394
aF1.0
aF0.9090909090909091
aF0.8787878787878788
aF0.9090909090909091
aF0.9090909090909091
aF0.9090909090909091
aF0.9090909090909091
aF0.8181818181818182
aF0.9696969696969697
aF0.9393939393939394
aF0.9090909090909091
aF0.9090909090909091
aF0.9393939393939394
aF0.8787878787878788
aF0.8787878787878788
aF0.9393939393939394
aF0.8787878787878788
aF0.9393939393939394
aF0.9393939393939394
aF0.9393939393939394
aF0.9393939393939394
asg10
F0.9127272727272723
ssg11
(dp202
g8
(lp203
F0.9393939393939394
aF0.9090909090909091
aF0.8484848484848485
aF0.8787878787878788
aF0.9090909090909091
aF0.9090909090909091
aF0.9090909090909091
aF0.8787878787878788
aF0.8787878787878788
aF0.8484848484848485
aF0.9090909090909091
aF0.8787878787878788
aF0.9090909090909091
aF0.8787878787878788
aF0.9090909090909091
aF1.0
aF0.8787878787878788
aF0.9393939393939394
aF0.9090909090909091
aF0.8787878787878788
aF0.8787878787878788
aF0.9696969696969697
aF0.9090909090909091
aF0.9696969696969697
aF0.9393939393939394
aF0.9393939393939394
aF0.9090909090909091
aF0.9393939393939394
aF0.9393939393939394
aF1.0
aF0.9090909090909091
aF0.8787878787878788
aF0.9090909090909091
aF0.9090909090909091
aF0.9090909090909091
aF0.9393939393939394
aF0.8181818181818182
aF0.9696969696969697
aF0.9393939393939394
aF0.9090909090909091
aF0.9090909090909091
aF0.9393939393939394
aF0.8787878787878788
aF0.8787878787878788
aF0.9393939393939394
aF0.8787878787878788
aF0.9393939393939394
aF0.9393939393939394
aF0.9393939393939394
aF0.5454545454545454
asg10
F0.9054545454545451
ssg14
(dp204
g8
(lp205
F0.9393939393939394
aF0.6363636363636364
aF0.30303030303030304
aF0.9393939393939394
aF0.5151515151515151
aF0.18181818181818182
aF0.45454545454545453
aF0.9090909090909091
aF0.36363636363636365
aF0.8484848484848485
aF0.9090909090909091
aF0.5757575757575758
aF0.45454545454545453
aF0.8787878787878788
aF0.42424242424242425
aF1.0
aF0.8787878787878788
aF0.7575757575757576
aF0.5151515151515151
aF0.8787878787878788
aF0.8787878787878788
aF0.696969696969697
aF0.9393939393939394
aF0.3939393939393939
aF0.9393939393939394
aF0.9393939393939394
aF0.7575757575757576
aF0.9393939393939394
aF0.45454545454545453
aF0.5454545454545454
aF0.9090909090909091
aF0.8787878787878788
aF0.9090909090909091
aF0.45454545454545453
aF0.9090909090909091
aF0.9393939393939394
aF0.8484848484848485
aF0.9696969696969697
aF0.6363636363636364
aF0.9090909090909091
aF0.9090909090909091
aF0.3939393939393939
aF0.42424242424242425
aF0.24242424242424243
aF0.3333333333333333
aF0.9090909090909091
aF0.6666666666666666
aF0.5151515151515151
aF0.9393939393939394
aF0.42424242424242425
asg10
F0.6993939393939392
ssa(dp206
g6
(dp207
g8
(lp208
F0.9375
aF0.96875
aF0.875
aF0.875
aF0.96875
aF0.875
aF0.90625
aF0.84375
aF0.875
aF0.84375
aF0.875
aF0.96875
aF0.90625
aF0.96875
aF0.90625
aF0.96875
aF0.84375
aF0.9375
aF0.78125
aF0.9375
aF0.90625
aF0.8125
aF0.96875
aF0.875
aF0.875
aF0.96875
aF0.875
aF0.875
aF0.9375
aF0.84375
aF0.875
aF0.875
aF0.96875
aF0.875
aF0.875
aF0.9375
aF0.90625
aF0.96875
aF0.875
aF0.9375
aF0.90625
aF0.90625
aF0.96875
aF0.9375
aF0.90625
aF0.875
aF0.90625
aF0.875
aF0.84375
aF0.875
asg10
F0.901875
ssg11
(dp209
g8
(lp210
F0.9375
aF0.96875
aF0.875
aF0.875
aF0.96875
aF0.875
aF0.90625
aF0.84375
aF0.875
aF0.84375
aF0.875
aF0.96875
aF0.90625
aF0.96875
aF0.90625
aF0.96875
aF0.84375
aF0.9375
aF0.78125
aF0.9375
aF0.90625
aF0.8125
aF0.96875
aF0.875
aF0.875
aF0.96875
aF0.875
aF0.875
aF0.9375
aF0.84375
aF0.875
aF0.875
aF0.96875
aF0.90625
aF0.875
aF0.9375
aF0.90625
aF0.96875
aF0.875
aF0.9375
aF0.90625
aF0.90625
aF0.96875
aF0.9375
aF0.90625
aF0.875
aF0.90625
aF0.875
aF0.84375
aF0.875
asg10
F0.9025
ssg14
(dp211
g8
(lp212
F0.59375
aF0.96875
aF0.28125
aF0.875
aF0.96875
aF0.875
aF0.90625
aF0.875
aF0.875
aF0.875
aF0.28125
aF0.96875
aF0.90625
aF0.15625
aF0.3125
aF0.96875
aF0.84375
aF0.34375
aF0.78125
aF0.59375
aF0.90625
aF0.15625
aF0.4375
aF0.4375
aF0.875
aF0.96875
aF0.21875
aF0.15625
aF0.9375
aF0.84375
aF0.40625
aF0.90625
aF0.375
aF0.90625
aF0.875
aF0.65625
aF0.9375
aF0.40625
aF0.25
aF0.9375
aF0.90625
aF0.90625
aF0.96875
aF0.4375
aF0.90625
aF0.9375
aF0.90625
aF0.40625
aF0.4375
aF0.875
asg10
F0.690625
ssa(dp213
g6
(dp214
g8
(lp215
F0.9333333333333333
aF0.9
aF0.9
aF0.9
aF1.0
aF0.9
aF0.8666666666666667
aF0.8666666666666667
aF0.9
aF0.9
aF0.8666666666666667
aF0.9
aF1.0
aF0.8666666666666667
aF0.9
aF0.8666666666666667
aF0.9
aF0.8
aF0.9
aF0.8666666666666667
aF0.9333333333333333
aF0.8666666666666667
aF0.9
aF0.9333333333333333
aF0.9666666666666667
aF1.0
aF0.9333333333333333
aF0.8666666666666667
aF0.8666666666666667
aF0.9
aF0.8666666666666667
aF0.9333333333333333
aF0.9
aF0.9666666666666667
aF0.8666666666666667
aF0.8666666666666667
aF0.9333333333333333
aF0.9666666666666667
aF0.9
aF0.9333333333333333
aF0.9333333333333333
aF0.9333333333333333
aF0.9666666666666667
aF0.9
aF0.8666666666666667
aF0.9666666666666667
aF0.8666666666666667
aF0.8333333333333334
aF0.9
aF0.9333333333333333
asg10
F0.9066666666666664
ssg11
(dp216
g8
(lp217
F0.9333333333333333
aF0.9
aF0.9
aF0.9
aF1.0
aF0.9
aF0.8666666666666667
aF0.8666666666666667
aF0.9
aF0.9
aF0.8666666666666667
aF0.9
aF1.0
aF0.8666666666666667
aF0.9
aF0.8666666666666667
aF0.9
aF0.8
aF0.9
aF0.8666666666666667
aF0.9333333333333333
aF0.8666666666666667
aF0.9
aF0.9333333333333333
aF0.9666666666666667
aF1.0
aF0.9333333333333333
aF0.8666666666666667
aF0.8666666666666667
aF0.9
aF0.8666666666666667
aF0.9333333333333333
aF0.9
aF0.9666666666666667
aF0.8666666666666667
aF0.8666666666666667
aF0.9333333333333333
aF1.0
aF0.9
aF0.9333333333333333
aF0.9333333333333333
aF0.9333333333333333
aF0.9666666666666667
aF0.9
aF0.8666666666666667
aF0.9666666666666667
aF0.8666666666666667
aF0.8333333333333334
aF0.9
aF0.9333333333333333
asg10
F0.9073333333333331
ssg14
(dp218
g8
(lp219
F0.5
aF0.9
aF0.9
aF0.9
aF1.0
aF0.9
aF0.26666666666666666
aF0.23333333333333334
aF0.9
aF0.9333333333333333
aF0.8666666666666667
aF0.9
aF1.0
aF0.5333333333333333
aF0.16666666666666666
aF0.8666666666666667
aF0.9
aF0.8
aF0.9333333333333333
aF0.36666666666666664
aF0.9333333333333333
aF0.9
aF0.9
aF0.4
aF0.9666666666666667
aF0.6666666666666666
aF0.9333333333333333
aF0.8666666666666667
aF0.3333333333333333
aF0.9
aF0.8666666666666667
aF0.6
aF0.9
aF0.4
aF0.8666666666666667
aF0.8666666666666667
aF0.4666666666666667
aF1.0
aF0.9
aF0.9333333333333333
aF0.5666666666666667
aF0.9666666666666667
aF0.5
aF0.9
aF0.9
aF0.9666666666666667
aF0.8666666666666667
aF0.8333333333333334
aF0.9
aF0.9333333333333333
asg10
F0.7739999999999998
ssa(dp220
g6
(dp221
g8
(lp222
F0.9310344827586207
aF0.9655172413793104
aF0.896551724137931
aF0.9310344827586207
aF0.9655172413793104
aF0.8620689655172413
aF0.8275862068965517
aF0.896551724137931
aF0.896551724137931
aF0.8275862068965517
aF0.9310344827586207
aF1.0
aF0.9310344827586207
aF0.8275862068965517
aF0.896551724137931
aF0.8620689655172413
aF0.9655172413793104
aF0.8620689655172413
aF0.9310344827586207
aF0.9655172413793104
aF0.9310344827586207
aF0.9655172413793104
aF0.9655172413793104
aF0.8620689655172413
aF0.896551724137931
aF0.8275862068965517
aF0.9310344827586207
aF0.8275862068965517
aF0.896551724137931
aF0.896551724137931
aF0.9655172413793104
aF0.9310344827586207
aF0.9310344827586207
aF0.8620689655172413
aF0.9655172413793104
aF0.896551724137931
aF0.896551724137931
aF0.9310344827586207
aF0.9310344827586207
aF0.896551724137931
aF0.896551724137931
aF0.9310344827586207
aF0.9310344827586207
aF0.9310344827586207
aF0.8275862068965517
aF0.9310344827586207
aF1.0
aF0.896551724137931
aF0.896551724137931
aF0.896551724137931
asg10
F0.9103448275862064
ssg11
(dp223
g8
(lp224
F0.9310344827586207
aF0.9655172413793104
aF0.896551724137931
aF0.9310344827586207
aF0.9655172413793104
aF0.8620689655172413
aF0.8275862068965517
aF0.896551724137931
aF0.896551724137931
aF0.8275862068965517
aF0.9310344827586207
aF1.0
aF0.9310344827586207
aF0.8275862068965517
aF0.896551724137931
aF0.8620689655172413
aF0.9655172413793104
aF0.8620689655172413
aF0.9310344827586207
aF0.9655172413793104
aF0.9310344827586207
aF0.9655172413793104
aF0.9655172413793104
aF0.896551724137931
aF0.896551724137931
aF0.8275862068965517
aF0.9655172413793104
aF0.8275862068965517
aF0.896551724137931
aF0.896551724137931
aF0.9655172413793104
aF0.9310344827586207
aF0.9310344827586207
aF0.8620689655172413
aF0.9655172413793104
aF0.896551724137931
aF0.896551724137931
aF0.9310344827586207
aF0.9310344827586207
aF0.896551724137931
aF0.896551724137931
aF0.9310344827586207
aF0.9310344827586207
aF0.9310344827586207
aF0.8275862068965517
aF0.9310344827586207
aF1.0
aF0.896551724137931
aF0.896551724137931
aF0.896551724137931
asg10
F0.911724137931034
ssg14
(dp225
g8
(lp226
F0.9310344827586207
aF1.0
aF0.896551724137931
aF0.9310344827586207
aF0.9655172413793104
aF0.8620689655172413
aF0.8275862068965517
aF0.5172413793103449
aF0.896551724137931
aF0.8620689655172413
aF0.9310344827586207
aF1.0
aF0.9310344827586207
aF0.8275862068965517
aF0.896551724137931
aF0.20689655172413793
aF0.9655172413793104
aF0.8620689655172413
aF0.9310344827586207
aF0.4482758620689655
aF0.9310344827586207
aF0.896551724137931
aF0.27586206896551724
aF0.896551724137931
aF0.896551724137931
aF0.8275862068965517
aF0.9655172413793104
aF0.8275862068965517
aF0.896551724137931
aF0.896551724137931
aF0.9655172413793104
aF0.9310344827586207
aF0.9655172413793104
aF0.8620689655172413
aF0.9655172413793104
aF0.9310344827586207
aF0.896551724137931
aF0.9310344827586207
aF0.9310344827586207
aF0.896551724137931
aF0.896551724137931
aF0.9310344827586207
aF0.9655172413793104
aF0.9310344827586207
aF0.4482758620689655
aF0.9310344827586207
aF1.0
aF0.2413793103448276
aF0.896551724137931
aF0.896551724137931
asg10
F0.8482758620689652
ssa(dp227
g6
(dp228
g8
(lp229
F0.9629629629629629
aF0.8518518518518519
aF0.9629629629629629
aF0.8888888888888888
aF0.9259259259259259
aF0.8888888888888888
aF0.8888888888888888
aF0.8888888888888888
aF0.9259259259259259
aF0.9259259259259259
aF0.9629629629629629
aF0.9259259259259259
aF0.8518518518518519
aF0.8888888888888888
aF0.8888888888888888
aF0.9259259259259259
aF0.8518518518518519
aF0.8518518518518519
aF0.9259259259259259
aF0.8518518518518519
aF0.9259259259259259
aF0.7407407407407407
aF0.9259259259259259
aF1.0
aF0.8148148148148148
aF0.8888888888888888
aF0.8518518518518519
aF0.9259259259259259
aF1.0
aF0.8888888888888888
aF0.8888888888888888
aF0.9629629629629629
aF0.9629629629629629
aF0.8888888888888888
aF0.9259259259259259
aF0.9629629629629629
aF0.9259259259259259
aF0.8888888888888888
aF0.9629629629629629
aF0.9629629629629629
aF0.9259259259259259
aF0.9259259259259259
aF0.9259259259259259
aF0.8518518518518519
aF0.8148148148148148
aF0.8888888888888888
aF0.9629629629629629
aF0.9259259259259259
aF0.9259259259259259
aF0.8888888888888888
asg10
F0.907407407407407
ssg11
(dp230
g8
(lp231
F0.9629629629629629
aF0.8518518518518519
aF0.9629629629629629
aF0.8888888888888888
aF0.9259259259259259
aF0.8888888888888888
aF0.8888888888888888
aF0.8888888888888888
aF0.9259259259259259
aF0.9259259259259259
aF0.9629629629629629
aF0.9259259259259259
aF0.8518518518518519
aF0.8888888888888888
aF0.8888888888888888
aF0.9259259259259259
aF0.8518518518518519
aF0.8518518518518519
aF0.9259259259259259
aF0.8518518518518519
aF0.9259259259259259
aF0.7407407407407407
aF0.9259259259259259
aF1.0
aF0.8148148148148148
aF0.8888888888888888
aF0.8518518518518519
aF0.9259259259259259
aF1.0
aF0.8888888888888888
aF0.8888888888888888
aF0.9629629629629629
aF0.9629629629629629
aF0.8888888888888888
aF0.9259259259259259
aF0.9629629629629629
aF0.9259259259259259
aF0.8888888888888888
aF0.9629629629629629
aF0.9629629629629629
aF0.9259259259259259
aF0.9259259259259259
aF0.9259259259259259
aF0.8518518518518519
aF0.8148148148148148
aF0.8888888888888888
aF0.9629629629629629
aF0.9259259259259259
aF0.9259259259259259
aF0.8888888888888888
asg10
F0.907407407407407
ssg14
(dp232
g8
(lp233
F0.9629629629629629
aF0.8518518518518519
aF0.9629629629629629
aF0.9259259259259259
aF0.9259259259259259
aF0.9259259259259259
aF0.1111111111111111
aF0.8888888888888888
aF0.9259259259259259
aF0.9259259259259259
aF0.9629629629629629
aF0.9259259259259259
aF0.8518518518518519
aF0.9259259259259259
aF0.8888888888888888
aF0.9259259259259259
aF0.8518518518518519
aF0.8518518518518519
aF0.9259259259259259
aF0.8518518518518519
aF0.9259259259259259
aF0.7407407407407407
aF0.9259259259259259
aF1.0
aF0.8148148148148148
aF0.8888888888888888
aF0.8518518518518519
aF0.9259259259259259
aF0.3333333333333333
aF0.8888888888888888
aF0.037037037037037035
aF0.9629629629629629
aF0.9629629629629629
aF0.8888888888888888
aF0.9259259259259259
aF0.5185185185185185
aF0.9259259259259259
aF0.8888888888888888
aF0.9629629629629629
aF0.25925925925925924
aF0.9259259259259259
aF0.25925925925925924
aF0.9259259259259259
aF0.8518518518518519
aF0.8148148148148148
aF0.8888888888888888
aF0.9629629629629629
aF0.9259259259259259
aF0.9259259259259259
aF0.8888888888888888
asg10
F0.8274074074074071
ssa(dp234
g6
(dp235
g8
(lp236
F0.9230769230769231
aF0.8846153846153846
aF0.8461538461538461
aF0.8846153846153846
aF1.0
aF0.8846153846153846
aF0.8846153846153846
aF0.9615384615384616
aF0.8461538461538461
aF0.9615384615384616
aF0.8461538461538461
aF0.9230769230769231
aF0.9230769230769231
aF0.8846153846153846
aF0.8461538461538461
aF0.8461538461538461
aF0.9615384615384616
aF0.8461538461538461
aF0.9230769230769231
aF0.9615384615384616
aF0.8846153846153846
aF0.8846153846153846
aF0.8461538461538461
aF0.8461538461538461
aF0.9230769230769231
aF0.8846153846153846
aF0.9230769230769231
aF0.8846153846153846
aF0.8846153846153846
aF0.8461538461538461
aF0.9615384615384616
aF0.9230769230769231
aF0.8846153846153846
aF0.8846153846153846
aF0.8846153846153846
aF0.9230769230769231
aF0.9230769230769231
aF0.9230769230769231
aF0.9230769230769231
aF0.9230769230769231
aF0.8846153846153846
aF0.9230769230769231
aF0.9230769230769231
aF0.9230769230769231
aF0.9230769230769231
aF0.9615384615384616
aF0.9615384615384616
aF0.9615384615384616
aF0.8461538461538461
aF0.8461538461538461
asg10
F0.9030769230769223
ssg11
(dp237
g8
(lp238
F0.9230769230769231
aF0.8846153846153846
aF0.8461538461538461
aF0.8846153846153846
aF1.0
aF0.8846153846153846
aF0.8846153846153846
aF0.9615384615384616
aF0.8461538461538461
aF0.9615384615384616
aF0.8461538461538461
aF0.9230769230769231
aF0.9230769230769231
aF0.8846153846153846
aF0.8461538461538461
aF0.8461538461538461
aF0.9615384615384616
aF0.8461538461538461
aF0.9230769230769231
aF0.9615384615384616
aF0.8846153846153846
aF0.8846153846153846
aF0.8461538461538461
aF0.8461538461538461
aF0.9230769230769231
aF0.8846153846153846
aF0.9230769230769231
aF0.8846153846153846
aF0.8846153846153846
aF0.8461538461538461
aF0.9615384615384616
aF0.9230769230769231
aF0.8846153846153846
aF0.8846153846153846
aF0.8846153846153846
aF0.9230769230769231
aF0.9230769230769231
aF0.9230769230769231
aF0.9230769230769231
aF0.9230769230769231
aF0.8846153846153846
aF0.9230769230769231
aF0.9230769230769231
aF0.9230769230769231
aF0.9230769230769231
aF0.9615384615384616
aF0.9615384615384616
aF0.9615384615384616
aF0.8461538461538461
aF0.8461538461538461
asg10
F0.9030769230769223
ssg14
(dp239
g8
(lp240
F0.3076923076923077
aF0.8846153846153846
aF0.8461538461538461
aF0.8846153846153846
aF1.0
aF0.8846153846153846
aF0.8846153846153846
aF0.9615384615384616
aF0.8461538461538461
aF0.4230769230769231
aF0.8846153846153846
aF0.9230769230769231
aF0.9230769230769231
aF0.8846153846153846
aF0.8461538461538461
aF0.8461538461538461
aF0.9615384615384616
aF0.8461538461538461
aF0.9230769230769231
aF0.9615384615384616
aF0.8846153846153846
aF0.8846153846153846
aF0.8846153846153846
aF0.8461538461538461
aF0.9230769230769231
aF0.8846153846153846
aF0.9230769230769231
aF0.8846153846153846
aF0.8846153846153846
aF0.8461538461538461
aF0.9615384615384616
aF0.23076923076923078
aF0.8846153846153846
aF0.8846153846153846
aF0.8846153846153846
aF0.9230769230769231
aF0.9230769230769231
aF0.9230769230769231
aF0.34615384615384615
aF0.9230769230769231
aF0.9230769230769231
aF0.9230769230769231
aF0.9230769230769231
aF0.9230769230769231
aF0.9230769230769231
aF0.2692307692307692
aF0.9615384615384616
aF0.9615384615384616
aF0.8461538461538461
aF0.8461538461538461
asg10
F0.8430769230769224
ssa(dp241
g6
(dp242
g8
(lp243
F0.9166666666666666
aF0.9583333333333334
aF0.9166666666666666
aF1.0
aF0.9583333333333334
aF0.875
aF0.9583333333333334
aF0.875
aF0.9583333333333334
aF0.9583333333333334
aF1.0
aF0.875
aF0.9583333333333334
aF0.9166666666666666
aF0.9166666666666666
aF0.7916666666666666
aF0.9583333333333334
aF0.9583333333333334
aF0.9166666666666666
aF0.8333333333333334
aF0.875
aF0.9583333333333334
aF0.875
aF0.9166666666666666
aF0.9166666666666666
aF0.875
aF0.9166666666666666
aF0.9583333333333334
aF0.9166666666666666
aF1.0
aF0.9583333333333334
aF0.9583333333333334
aF0.9166666666666666
aF0.9166666666666666
aF0.9166666666666666
aF0.7916666666666666
aF0.875
aF0.9166666666666666
aF0.8333333333333334
aF0.9583333333333334
aF0.8333333333333334
aF0.875
aF0.9166666666666666
aF0.9583333333333334
aF0.9166666666666666
aF0.875
aF0.8333333333333334
aF0.75
aF1.0
aF0.9583333333333334
asg10
F0.9133333333333334
ssg11
(dp244
g8
(lp245
F0.9166666666666666
aF0.9583333333333334
aF0.9166666666666666
aF1.0
aF0.9583333333333334
aF0.875
aF0.9583333333333334
aF0.875
aF0.9583333333333334
aF0.9583333333333334
aF1.0
aF0.875
aF0.9583333333333334
aF0.9166666666666666
aF0.9166666666666666
aF0.7916666666666666
aF0.9583333333333334
aF0.9583333333333334
aF0.9166666666666666
aF0.8333333333333334
aF0.875
aF0.9583333333333334
aF0.875
aF0.9166666666666666
aF0.9166666666666666
aF0.875
aF0.9166666666666666
aF0.9583333333333334
aF0.9166666666666666
aF1.0
aF0.9583333333333334
aF0.9583333333333334
aF0.9166666666666666
aF0.9166666666666666
aF0.9166666666666666
aF0.7916666666666666
aF0.875
aF0.9166666666666666
aF0.8333333333333334
aF0.9583333333333334
aF0.8333333333333334
aF0.875
aF0.9166666666666666
aF0.9583333333333334
aF0.9166666666666666
aF0.875
aF0.8333333333333334
aF0.75
aF1.0
aF0.9583333333333334
asg10
F0.9133333333333334
ssg14
(dp246
g8
(lp247
F0.9166666666666666
aF0.9583333333333334
aF0.9166666666666666
aF1.0
aF0.9583333333333334
aF0.875
aF0.9583333333333334
aF0.875
aF0.9583333333333334
aF0.9583333333333334
aF1.0
aF0.875
aF1.0
aF0.9583333333333334
aF0.9166666666666666
aF0.7916666666666666
aF0.9583333333333334
aF0.9583333333333334
aF0.9166666666666666
aF0.8333333333333334
aF0.875
aF0.9583333333333334
aF0.875
aF0.9166666666666666
aF0.9166666666666666
aF0.9166666666666666
aF0.9166666666666666
aF1.0
aF0.9166666666666666
aF1.0
aF0.9583333333333334
aF0.9583333333333334
aF0.9166666666666666
aF0.9166666666666666
aF0.9166666666666666
aF0.7916666666666666
aF0.875
aF0.9166666666666666
aF0.8333333333333334
aF0.9583333333333334
aF0.8333333333333334
aF0.875
aF0.9166666666666666
aF0.9583333333333334
aF0.9166666666666666
aF0.875
aF0.8333333333333334
aF0.75
aF1.0
aF0.9583333333333334
asg10
F0.9166666666666669
ssas.