(dp0
S'testset'
p1
S'black_no_irrelevant'
p2
sS'results'
p3
(dp4
F0.5
(dp5
S'ide_dec'
p6
(dp7
S'recalls'
p8
(lp9
F0.9210526315789473
aF0.868421052631579
asS'recall'
p10
F0.8947368421052632
ssS'rocchio'
p11
(dp12
g8
(lp13
F0.9210526315789473
aF0.868421052631579
asg10
F0.8947368421052632
ssS'ide_regular'
p14
(dp15
g8
(lp16
F0.9210526315789473
aF0.868421052631579
asg10
F0.8947368421052632
sssF0.56
(dp17
g6
(dp18
g8
(lp19
F0.8484848484848485
aF0.8787878787878788
asg10
F0.8636363636363636
ssg11
(dp20
g8
(lp21
F0.8484848484848485
aF0.8787878787878788
asg10
F0.8636363636363636
ssg14
(dp22
g8
(lp23
F0.8484848484848485
aF0.8787878787878788
asg10
F0.8636363636363636
sssF0.04
(dp24
g6
(dp25
g8
(lp26
F0.9027777777777778
aF0.9027777777777778
asg10
F0.9027777777777778
ssg11
(dp27
g8
(lp28
F0.9027777777777778
aF0.9027777777777778
asg10
F0.9027777777777778
ssg14
(dp29
g8
(lp30
F0.9027777777777778
aF0.9027777777777778
asg10
F0.9027777777777778
sssF0.22
(dp31
g6
(dp32
g8
(lp33
F0.9491525423728814
aF0.9152542372881356
asg10
F0.9322033898305084
ssg11
(dp34
g8
(lp35
F0.9491525423728814
aF0.9152542372881356
asg10
F0.9322033898305084
ssg14
(dp36
g8
(lp37
F0.9491525423728814
aF0.9152542372881356
asg10
F0.9322033898305084
sssF0.36
(dp38
g6
(dp39
g8
(lp40
F0.9166666666666666
aF0.8541666666666666
asg10
F0.8854166666666666
ssg11
(dp41
g8
(lp42
F0.9166666666666666
aF0.8541666666666666
asg10
F0.8854166666666666
ssg14
(dp43
g8
(lp44
F0.9166666666666666
aF0.8541666666666666
asg10
F0.8854166666666666
sssF0.38
(dp45
g6
(dp46
g8
(lp47
F0.8936170212765957
aF0.9148936170212766
asg10
F0.9042553191489362
ssg11
(dp48
g8
(lp49
F0.8936170212765957
aF0.9148936170212766
asg10
F0.9042553191489362
ssg14
(dp50
g8
(lp51
F0.8936170212765957
aF0.9148936170212766
asg10
F0.9042553191489362
sssF0.12
(dp52
g6
(dp53
g8
(lp54
F0.9090909090909091
aF0.8939393939393939
asg10
F0.9015151515151515
ssg11
(dp55
g8
(lp56
F0.9090909090909091
aF0.8939393939393939
asg10
F0.9015151515151515
ssg14
(dp57
g8
(lp58
F0.9090909090909091
aF0.8939393939393939
asg10
F0.9015151515151515
sssF0.02
(dp59
g6
(dp60
g8
(lp61
F0.0
aF0.0
asg10
F0.0
ssg11
(dp62
g8
(lp63
F0.0
aF0.0
asg10
F0.0
ssg14
(dp64
g8
(lp65
F0.0
aF0.0
asg10
F0.0
sssF0.68
(dp66
g6
(dp67
g8
(lp68
F0.9166666666666666
aF0.875
asg10
F0.8958333333333333
ssg11
(dp69
g8
(lp70
F0.9166666666666666
aF0.875
asg10
F0.8958333333333333
ssg14
(dp71
g8
(lp72
F0.9166666666666666
aF0.875
asg10
F0.8958333333333333
sssF0.58
(dp73
g6
(dp74
g8
(lp75
F0.875
aF0.875
asg10
F0.875
ssg11
(dp76
g8
(lp77
F0.875
aF0.875
asg10
F0.875
ssg14
(dp78
g8
(lp79
F0.875
aF0.875
asg10
F0.875
sssF0.24
(dp80
g6
(dp81
g8
(lp82
F0.9122807017543859
aF0.8771929824561403
asg10
F0.894736842105263
ssg11
(dp83
g8
(lp84
F0.9122807017543859
aF0.8771929824561403
asg10
F0.894736842105263
ssg14
(dp85
g8
(lp86
F0.9122807017543859
aF0.8771929824561403
asg10
F0.894736842105263
sssF0.26
(dp87
g6
(dp88
g8
(lp89
F0.9107142857142857
aF0.9285714285714286
asg10
F0.9196428571428572
ssg11
(dp90
g8
(lp91
F0.9107142857142857
aF0.9285714285714286
asg10
F0.9196428571428572
ssg14
(dp92
g8
(lp93
F0.9107142857142857
aF0.9285714285714286
asg10
F0.9196428571428572
sssF0.08
(dp94
g6
(dp95
g8
(lp96
F0.9130434782608695
aF0.8115942028985508
asg10
F0.8623188405797102
ssg11
(dp97
g8
(lp98
F0.9130434782608695
aF0.8115942028985508
asg10
F0.8623188405797102
ssg14
(dp99
g8
(lp100
F0.9130434782608695
aF0.8115942028985508
asg10
F0.8623188405797102
sssF0.06
(dp101
g6
(dp102
g8
(lp103
F0.9014084507042254
aF0.9014084507042254
asg10
F0.9014084507042254
ssg11
(dp104
g8
(lp105
F0.9014084507042254
aF0.9014084507042254
asg10
F0.9014084507042254
ssg14
(dp106
g8
(lp107
F0.9014084507042254
aF0.9014084507042254
asg10
F0.9014084507042254
sssF0.16
(dp108
g6
(dp109
g8
(lp110
F0.9047619047619048
aF0.9206349206349206
asg10
F0.9126984126984127
ssg11
(dp111
g8
(lp112
F0.9047619047619048
aF0.9206349206349206
asg10
F0.9126984126984127
ssg14
(dp113
g8
(lp114
F0.9047619047619048
aF0.9206349206349206
asg10
F0.9126984126984127
sssF0.42
(dp115
g6
(dp116
g8
(lp117
F0.9318181818181818
aF0.8863636363636364
asg10
F0.9090909090909091
ssg11
(dp118
g8
(lp119
F0.9318181818181818
aF0.8863636363636364
asg10
F0.9090909090909091
ssg14
(dp120
g8
(lp121
F0.9318181818181818
aF0.8863636363636364
asg10
F0.9090909090909091
sssF0.44
(dp122
g6
(dp123
g8
(lp124
F0.9047619047619048
aF0.8809523809523809
asg10
F0.8928571428571428
ssg11
(dp125
g8
(lp126
F0.9047619047619048
aF0.8809523809523809
asg10
F0.8928571428571428
ssg14
(dp127
g8
(lp128
F0.9047619047619048
aF0.8809523809523809
asg10
F0.8928571428571428
sssF0.18
(dp129
g6
(dp130
g8
(lp131
F0.8870967741935484
aF0.9032258064516129
asg10
F0.8951612903225806
ssg11
(dp132
g8
(lp133
F0.8870967741935484
aF0.9032258064516129
asg10
F0.8951612903225806
ssg14
(dp134
g8
(lp135
F0.8870967741935484
aF0.9032258064516129
asg10
F0.8951612903225806
sssF0.66
(dp136
g6
(dp137
g8
(lp138
F0.9615384615384616
aF0.8846153846153846
asg10
F0.9230769230769231
ssg11
(dp139
g8
(lp140
F0.9615384615384616
aF0.8846153846153846
asg10
F0.9230769230769231
ssg14
(dp141
g8
(lp142
F0.9615384615384616
aF0.8846153846153846
asg10
F0.9230769230769231
sssF0.6
(dp143
g6
(dp144
g8
(lp145
F0.9
aF0.8666666666666667
asg10
F0.8833333333333333
ssg11
(dp146
g8
(lp147
F0.9
aF0.8666666666666667
asg10
F0.8833333333333333
ssg14
(dp148
g8
(lp149
F0.9
aF0.8666666666666667
asg10
F0.8833333333333333
sssF0.3
(dp150
g6
(dp151
g8
(lp152
F0.8679245283018868
aF0.8679245283018868
asg10
F0.8679245283018868
ssg11
(dp153
g8
(lp154
F0.8679245283018868
aF0.8679245283018868
asg10
F0.8679245283018868
ssg14
(dp155
g8
(lp156
F0.8679245283018868
aF0.8679245283018868
asg10
F0.8679245283018868
sssF0.4
(dp157
g6
(dp158
g8
(lp159
F0.9333333333333333
aF0.8888888888888888
asg10
F0.9111111111111111
ssg11
(dp160
g8
(lp161
F0.9333333333333333
aF0.8888888888888888
asg10
F0.9111111111111111
ssg14
(dp162
g8
(lp163
F0.9333333333333333
aF0.8888888888888888
asg10
F0.9111111111111111
sssF0.48
(dp164
g6
(dp165
g8
(lp166
F0.9230769230769231
aF0.9230769230769231
asg10
F0.9230769230769231
ssg11
(dp167
g8
(lp168
F0.9230769230769231
aF0.9230769230769231
asg10
F0.9230769230769231
ssg14
(dp169
g8
(lp170
F0.9230769230769231
aF0.9230769230769231
asg10
F0.9230769230769231
sssF0.64
(dp171
g6
(dp172
g8
(lp173
F0.8518518518518519
aF0.9259259259259259
asg10
F0.8888888888888888
ssg11
(dp174
g8
(lp175
F0.8518518518518519
aF0.9259259259259259
asg10
F0.8888888888888888
ssg14
(dp176
g8
(lp177
F0.8518518518518519
aF0.9259259259259259
asg10
F0.8888888888888888
sssF0.46
(dp178
g6
(dp179
g8
(lp180
F0.9024390243902439
aF0.8780487804878049
asg10
F0.8902439024390244
ssg11
(dp181
g8
(lp182
F0.9024390243902439
aF0.8780487804878049
asg10
F0.8902439024390244
ssg14
(dp183
g8
(lp184
F0.9024390243902439
aF0.8780487804878049
asg10
F0.8902439024390244
sssF0.28
(dp185
g6
(dp186
g8
(lp187
F0.9074074074074074
aF0.9259259259259259
asg10
F0.9166666666666667
ssg11
(dp188
g8
(lp189
F0.9074074074074074
aF0.9259259259259259
asg10
F0.9166666666666667
ssg14
(dp190
g8
(lp191
F0.9074074074074074
aF0.9259259259259259
asg10
F0.9166666666666667
sssF0.32
(dp192
g6
(dp193
g8
(lp194
F0.9411764705882353
aF0.9215686274509803
asg10
F0.9313725490196079
ssg11
(dp195
g8
(lp196
F0.9411764705882353
aF0.9215686274509803
asg10
F0.9313725490196079
ssg14
(dp197
g8
(lp198
F0.9411764705882353
aF0.9215686274509803
asg10
F0.9313725490196079
sssF0.1
(dp199
g6
(dp200
g8
(lp201
F0.9117647058823529
aF0.8529411764705882
asg10
F0.8823529411764706
ssg11
(dp202
g8
(lp203
F0.9117647058823529
aF0.8529411764705882
asg10
F0.8823529411764706
ssg14
(dp204
g8
(lp205
F0.9117647058823529
aF0.8529411764705882
asg10
F0.8823529411764706
sssF0.2
(dp206
g6
(dp207
g8
(lp208
F0.8833333333333333
aF0.9
asg10
F0.8916666666666666
ssg11
(dp209
g8
(lp210
F0.8833333333333333
aF0.9
asg10
F0.8916666666666666
ssg14
(dp211
g8
(lp212
F0.8833333333333333
aF0.9
asg10
F0.8916666666666666
sssF0.54
(dp213
g6
(dp214
g8
(lp215
F0.9714285714285714
aF0.8571428571428571
asg10
F0.9142857142857143
ssg11
(dp216
g8
(lp217
F0.9714285714285714
aF0.8571428571428571
asg10
F0.9142857142857143
ssg14
(dp218
g8
(lp219
F0.9714285714285714
aF0.8571428571428571
asg10
F0.9142857142857143
sssF0.34
(dp220
g6
(dp221
g8
(lp222
F0.86
aF0.88
asg10
F0.87
ssg11
(dp223
g8
(lp224
F0.86
aF0.88
asg10
F0.87
ssg14
(dp225
g8
(lp226
F0.86
aF0.88
asg10
F0.87
sssF0.52
(dp227
g6
(dp228
g8
(lp229
F0.8888888888888888
aF0.8888888888888888
asg10
F0.8888888888888888
ssg11
(dp230
g8
(lp231
F0.8888888888888888
aF0.8888888888888888
asg10
F0.8888888888888888
ssg14
(dp232
g8
(lp233
F0.8888888888888888
aF0.8888888888888888
asg10
F0.8888888888888888
sssF0.62
(dp234
g6
(dp235
g8
(lp236
F0.896551724137931
aF0.7931034482758621
asg10
F0.8448275862068966
ssg11
(dp237
g8
(lp238
F0.896551724137931
aF0.7931034482758621
asg10
F0.8448275862068966
ssg14
(dp239
g8
(lp240
F0.896551724137931
aF0.7931034482758621
asg10
F0.8448275862068966
sssF0.14
(dp241
g6
(dp242
g8
(lp243
F0.9076923076923077
aF0.9076923076923077
asg10
F0.9076923076923077
ssg11
(dp244
g8
(lp245
F0.9076923076923077
aF0.9076923076923077
asg10
F0.9076923076923077
ssg14
(dp246
g8
(lp247
F0.9076923076923077
aF0.9076923076923077
asg10
F0.9076923076923077
ssss.