(dp0
F0.4
(dp1
F0.0
(dp2
F0.0
(dp3
S'recalls'
p4
(lp5
F0.0
aF0.0
aF0.0
aF0.0
aF0.0
aF0.0
aF0.0
aF0.0
aF0.0
aF0.0
assF0.25
(dp6
g4
(lp7
F0.0
aF0.0
aF0.0
aF0.0
aF0.0
aF0.0
aF0.0
aF0.0
aF0.0
aF0.0
assF1.0
(dp8
g4
(lp9
F0.0
aF0.0
aF0.0
aF0.0
aF0.0
aF0.0
aF0.0
aF0.0
aF0.0
aF0.0
assF0.5
(dp10
g4
(lp11
F0.0
aF0.0
aF0.0
aF0.0
aF0.0
aF0.0
aF0.0
aF0.0
aF0.0
aF0.0
assF0.75
(dp12
g4
(lp13
F0.0
aF0.0
aF0.0
aF0.0
aF0.0
aF0.0
aF0.0
aF0.0
aF0.0
aF0.0
asssF0.25
(dp14
F0.0
(dp15
g4
(lp16
F0.9111111111111111
aF0.8888888888888888
aF0.8888888888888888
aF0.8666666666666667
aF0.9333333333333333
aF0.8888888888888888
aF0.8666666666666667
aF0.8888888888888888
aF0.9111111111111111
aF0.9111111111111111
assF0.25
(dp17
g4
(lp18
F0.8888888888888888
aF0.9555555555555556
aF0.8888888888888888
aF0.9111111111111111
aF0.9111111111111111
aF0.8888888888888888
aF0.9555555555555556
aF0.9111111111111111
aF0.9555555555555556
aF0.9111111111111111
assF1.0
(dp19
g4
(lp20
F0.8888888888888888
aF0.9333333333333333
aF0.9111111111111111
aF0.9333333333333333
aF0.9111111111111111
aF0.9111111111111111
aF0.9111111111111111
aF0.8888888888888888
aF0.8666666666666667
aF0.9111111111111111
assF0.5
(dp21
g4
(lp22
F0.9333333333333333
aF0.9111111111111111
aF0.9333333333333333
aF0.8666666666666667
aF0.9555555555555556
aF0.8888888888888888
aF0.8666666666666667
aF0.9777777777777777
aF0.8888888888888888
aF0.9333333333333333
assF0.75
(dp23
g4
(lp24
F0.9111111111111111
aF0.9333333333333333
aF0.8888888888888888
aF0.9111111111111111
aF0.8666666666666667
aF0.9111111111111111
aF0.9555555555555556
aF0.8888888888888888
aF0.8888888888888888
aF0.9111111111111111
asssF1.0
(dp25
F0.0
(dp26
g4
(lp27
F0.8888888888888888
aF0.9111111111111111
aF0.8888888888888888
aF0.9333333333333333
aF0.9333333333333333
aF0.8666666666666667
aF0.8888888888888888
aF0.8666666666666667
aF0.9111111111111111
aF0.9111111111111111
assF0.25
(dp28
g4
(lp29
F1.0
aF0.9333333333333333
aF0.8888888888888888
aF0.8888888888888888
aF0.9111111111111111
aF0.9333333333333333
aF0.9333333333333333
aF0.9111111111111111
aF0.9111111111111111
aF0.8666666666666667
assF1.0
(dp30
g4
(lp31
F0.8888888888888888
aF0.8888888888888888
aF0.9111111111111111
aF0.9333333333333333
aF0.9111111111111111
aF0.8888888888888888
aF0.9111111111111111
aF0.8666666666666667
aF0.9333333333333333
aF0.8666666666666667
assF0.5
(dp32
g4
(lp33
F0.8888888888888888
aF0.8888888888888888
aF0.9333333333333333
aF0.9333333333333333
aF0.9111111111111111
aF0.9555555555555556
aF0.9555555555555556
aF0.8888888888888888
aF0.9333333333333333
aF0.8888888888888888
assF0.75
(dp34
g4
(lp35
F0.9333333333333333
aF0.9333333333333333
aF0.9111111111111111
aF0.8888888888888888
aF0.9111111111111111
aF0.8444444444444444
aF0.9111111111111111
aF0.4888888888888889
aF0.8888888888888888
aF0.9333333333333333
asssF0.5
(dp36
F0.0
(dp37
g4
(lp38
F0.9333333333333333
aF0.8666666666666667
aF0.9111111111111111
aF0.9333333333333333
aF0.9333333333333333
aF0.9111111111111111
aF0.9111111111111111
aF0.8888888888888888
aF0.9333333333333333
aF0.8666666666666667
assF0.25
(dp39
g4
(lp40
F0.8888888888888888
aF0.9111111111111111
aF0.9111111111111111
aF0.8888888888888888
aF0.8444444444444444
aF0.9111111111111111
aF0.8888888888888888
aF0.8888888888888888
aF0.9333333333333333
aF0.9333333333333333
assF1.0
(dp41
g4
(lp42
F0.9333333333333333
aF0.9333333333333333
aF0.9555555555555556
aF0.9333333333333333
aF0.9333333333333333
aF0.8888888888888888
aF0.8666666666666667
aF0.9111111111111111
aF0.8888888888888888
aF0.9111111111111111
assF0.5
(dp43
g4
(lp44
F0.8666666666666667
aF0.9111111111111111
aF0.8888888888888888
aF0.9333333333333333
aF0.8888888888888888
aF0.9111111111111111
aF0.8888888888888888
aF0.8444444444444444
aF0.9111111111111111
aF0.8666666666666667
assF0.75
(dp45
g4
(lp46
F0.9333333333333333
aF0.9333333333333333
aF0.8666666666666667
aF0.9111111111111111
aF0.8888888888888888
aF0.9111111111111111
aF0.9111111111111111
aF0.8666666666666667
aF0.8888888888888888
aF0.9111111111111111
asssF0.75
(dp47
F0.0
(dp48
g4
(lp49
F0.9555555555555556
aF0.9111111111111111
aF0.8888888888888888
aF0.9555555555555556
aF0.8888888888888888
aF0.9111111111111111
aF0.8888888888888888
aF0.8888888888888888
aF0.8666666666666667
aF0.8666666666666667
assF0.25
(dp50
g4
(lp51
F0.9111111111111111
aF0.9333333333333333
aF0.8666666666666667
aF0.9333333333333333
aF0.8666666666666667
aF0.9333333333333333
aF0.9111111111111111
aF0.8888888888888888
aF0.9777777777777777
aF0.8888888888888888
assF1.0
(dp52
g4
(lp53
F0.8666666666666667
aF0.9111111111111111
aF0.9111111111111111
aF0.9111111111111111
aF0.9111111111111111
aF0.9555555555555556
aF0.9333333333333333
aF0.8888888888888888
aF0.8666666666666667
aF0.9111111111111111
assF0.5
(dp54
g4
(lp55
F0.9111111111111111
aF0.9111111111111111
aF0.9111111111111111
aF0.8888888888888888
aF0.8888888888888888
aF0.8888888888888888
aF0.8888888888888888
aF0.8888888888888888
aF0.9555555555555556
aF0.8666666666666667
assF0.75
(dp56
g4
(lp57
F0.8444444444444444
aF0.8666666666666667
aF0.9777777777777777
aF0.9111111111111111
aF0.8666666666666667
aF0.8888888888888888
aF0.9333333333333333
aF0.9111111111111111
aF0.9111111111111111
aF0.9111111111111111
assssF0.3
(dp58
F0.0
(dp59
F0.0
(dp60
g4
(lp61
F0.0
aF0.0
aF0.0
aF0.0
aF0.0
aF0.0
aF0.0
aF0.0
aF0.0
aF0.0
assF0.25
(dp62
g4
(lp63
F0.0
aF0.0
aF0.0
aF0.0
aF0.0
aF0.0
aF0.0
aF0.0
aF0.0
aF0.0
assF1.0
(dp64
g4
(lp65
F0.0
aF0.0
aF0.0
aF0.0
aF0.0
aF0.0
aF0.0
aF0.0
aF0.0
aF0.0
assF0.5
(dp66
g4
(lp67
F0.0
aF0.0
aF0.0
aF0.0
aF0.0
aF0.0
aF0.0
aF0.0
aF0.0
aF0.0
assF0.75
(dp68
g4
(lp69
F0.0
aF0.0
aF0.0
aF0.0
aF0.0
aF0.0
aF0.0
aF0.0
aF0.0
aF0.0
asssF0.25
(dp70
F0.0
(dp71
g4
(lp72
F0.9245283018867925
aF0.9056603773584906
aF0.9056603773584906
aF0.9245283018867925
aF0.8867924528301887
aF0.9056603773584906
aF0.8867924528301887
aF0.9433962264150944
aF0.9056603773584906
aF0.9245283018867925
assF0.25
(dp73
g4
(lp74
F0.5283018867924528
aF0.9056603773584906
aF0.8679245283018868
aF0.9056603773584906
aF0.9056603773584906
aF0.9245283018867925
aF0.9245283018867925
aF0.8679245283018868
aF0.9245283018867925
aF0.8867924528301887
assF1.0
(dp75
g4
(lp76
F0.9056603773584906
aF0.8679245283018868
aF0.8867924528301887
aF0.8867924528301887
aF0.9245283018867925
aF0.9245283018867925
aF0.9433962264150944
aF0.9245283018867925
aF0.9056603773584906
aF0.9056603773584906
assF0.5
(dp77
g4
(lp78
F0.8679245283018868
aF0.9245283018867925
aF0.9433962264150944
aF0.8867924528301887
aF0.9056603773584906
aF0.8867924528301887
aF0.9622641509433962
aF0.8867924528301887
aF0.9056603773584906
aF0.9056603773584906
assF0.75
(dp79
g4
(lp80
F0.9056603773584906
aF0.9245283018867925
aF0.8679245283018868
aF0.9056603773584906
aF0.8867924528301887
aF0.9056603773584906
aF0.8867924528301887
aF0.9245283018867925
aF0.8867924528301887
aF0.8867924528301887
asssF1.0
(dp81
F0.0
(dp82
g4
(lp83
F0.9056603773584906
aF0.8867924528301887
aF0.8679245283018868
aF0.8867924528301887
aF0.9056603773584906
aF0.9056603773584906
aF0.9433962264150944
aF0.9433962264150944
aF0.9056603773584906
aF0.8867924528301887
assF0.25
(dp84
g4
(lp85
F0.9245283018867925
aF0.9056603773584906
aF0.9056603773584906
aF0.8867924528301887
aF0.9433962264150944
aF0.9056603773584906
aF0.8867924528301887
aF0.9056603773584906
aF0.8867924528301887
aF0.9245283018867925
assF1.0
(dp86
g4
(lp87
F0.9245283018867925
aF0.9056603773584906
aF0.8867924528301887
aF0.8867924528301887
aF0.9056603773584906
aF0.9056603773584906
aF0.9245283018867925
aF0.9056603773584906
aF0.9056603773584906
aF0.8867924528301887
assF0.5
(dp88
g4
(lp89
F0.9056603773584906
aF0.9056603773584906
aF0.9056603773584906
aF0.9433962264150944
aF0.8867924528301887
aF0.8867924528301887
aF0.8867924528301887
aF0.9056603773584906
aF0.9056603773584906
aF0.8867924528301887
assF0.75
(dp90
g4
(lp91
F0.9056603773584906
aF0.9245283018867925
aF0.9245283018867925
aF0.9056603773584906
aF0.9056603773584906
aF0.8679245283018868
aF0.8867924528301887
aF0.9056603773584906
aF0.8867924528301887
aF0.9245283018867925
asssF0.5
(dp92
F0.0
(dp93
g4
(lp94
F0.9622641509433962
aF0.9245283018867925
aF0.8867924528301887
aF0.8867924528301887
aF0.9056603773584906
aF0.9056603773584906
aF0.9056603773584906
aF0.9433962264150944
aF0.9433962264150944
aF0.9056603773584906
assF0.25
(dp95
g4
(lp96
F0.9056603773584906
aF0.8679245283018868
aF0.8867924528301887
aF0.9056603773584906
aF0.8867924528301887
aF0.9056603773584906
aF0.9056603773584906
aF0.9245283018867925
aF0.9245283018867925
aF0.9245283018867925
assF1.0
(dp97
g4
(lp98
F0.8679245283018868
aF0.8867924528301887
aF0.9245283018867925
aF0.9056603773584906
aF0.9056603773584906
aF0.8867924528301887
aF0.9056603773584906
aF0.9433962264150944
aF0.8867924528301887
aF0.8867924528301887
assF0.5
(dp99
g4
(lp100
F0.8867924528301887
aF0.9245283018867925
aF0.9056603773584906
aF0.8867924528301887
aF0.9245283018867925
aF0.9245283018867925
aF0.9245283018867925
aF0.9433962264150944
aF0.9245283018867925
aF0.9245283018867925
assF0.75
(dp101
g4
(lp102
F0.9245283018867925
aF0.9056603773584906
aF0.9056603773584906
aF0.9056603773584906
aF0.8679245283018868
aF0.9245283018867925
aF0.9056603773584906
aF0.9056603773584906
aF0.8867924528301887
aF0.9056603773584906
asssF0.75
(dp103
F0.0
(dp104
g4
(lp105
F0.9245283018867925
aF0.8867924528301887
aF0.9245283018867925
aF0.9056603773584906
aF0.9245283018867925
aF0.9433962264150944
aF0.9056603773584906
aF0.9245283018867925
aF0.9433962264150944
aF0.8679245283018868
assF0.25
(dp106
g4
(lp107
F0.9056603773584906
aF0.9245283018867925
aF0.8867924528301887
aF0.8867924528301887
aF0.8867924528301887
aF0.9245283018867925
aF0.9056603773584906
aF0.8679245283018868
aF0.9056603773584906
aF0.8867924528301887
assF1.0
(dp108
g4
(lp109
F0.9245283018867925
aF0.8867924528301887
aF0.9245283018867925
aF0.8867924528301887
aF0.9622641509433962
aF0.9245283018867925
aF0.9056603773584906
aF0.8867924528301887
aF0.8867924528301887
aF0.8867924528301887
assF0.5
(dp110
g4
(lp111
F0.8679245283018868
aF0.9433962264150944
aF0.9245283018867925
aF0.8867924528301887
aF0.9433962264150944
aF0.9056603773584906
aF0.8867924528301887
aF0.9245283018867925
aF0.8867924528301887
aF0.9245283018867925
assF0.75
(dp112
g4
(lp113
F0.8867924528301887
aF0.8867924528301887
aF0.9433962264150944
aF0.8867924528301887
aF0.9245283018867925
aF0.9056603773584906
aF0.8867924528301887
aF0.8867924528301887
aF0.9056603773584906
aF0.8867924528301887
assssF0.2
(dp114
F0.0
(dp115
F0.0
(dp116
g4
(lp117
F0.0
aF0.0
aF0.0
aF0.0
aF0.0
aF0.0
aF0.0
aF0.0
aF0.0
aF0.0
assF0.25
(dp118
g4
(lp119
F0.0
aF0.0
aF0.0
aF0.0
aF0.0
aF0.0
aF0.0
aF0.0
aF0.0
aF0.0
assF1.0
(dp120
g4
(lp121
F0.0
aF0.0
aF0.0
aF0.0
aF0.0
aF0.0
aF0.0
aF0.0
aF0.0
aF0.0
assF0.5
(dp122
g4
(lp123
F0.0
aF0.0
aF0.0
aF0.0
aF0.0
aF0.0
aF0.0
aF0.0
aF0.0
aF0.0
assF0.75
(dp124
g4
(lp125
F0.0
aF0.0
aF0.0
aF0.0
aF0.0
aF0.0
aF0.0
aF0.0
aF0.0
aF0.0
asssF0.25
(dp126
F0.0
(dp127
g4
(lp128
F0.9166666666666666
aF0.9166666666666666
aF0.9
aF0.9
aF0.8833333333333333
aF0.8833333333333333
aF0.8833333333333333
aF0.9
aF0.9166666666666666
aF0.8833333333333333
assF0.25
(dp129
g4
(lp130
F0.95
aF0.9
aF0.9
aF0.9
aF0.9166666666666666
aF0.9
aF0.9166666666666666
aF0.9
aF0.8833333333333333
aF0.8833333333333333
assF1.0
(dp131
g4
(lp132
F0.8833333333333333
aF0.9
aF0.8833333333333333
aF0.9
aF0.9
aF0.8833333333333333
aF0.9
aF0.9
aF0.8833333333333333
aF0.9
assF0.5
(dp133
g4
(lp134
F0.9
aF0.9
aF0.9
aF0.9333333333333333
aF0.9166666666666666
aF0.9166666666666666
aF0.8833333333333333
aF0.9166666666666666
aF0.9
aF0.9
assF0.75
(dp135
g4
(lp136
F0.9
aF0.9
aF0.95
aF0.9
aF0.8833333333333333
aF0.5666666666666667
aF0.9
aF0.9333333333333333
aF0.9
aF0.8833333333333333
asssF1.0
(dp137
F0.0
(dp138
g4
(lp139
F0.9
aF0.8833333333333333
aF0.9166666666666666
aF0.9
aF0.9333333333333333
aF0.5333333333333333
aF0.9166666666666666
aF0.8833333333333333
aF0.8833333333333333
aF0.8833333333333333
assF0.25
(dp140
g4
(lp141
F0.9666666666666667
aF0.9166666666666666
aF0.9
aF0.9
aF0.9
aF0.95
aF0.9333333333333333
aF0.9166666666666666
aF0.9333333333333333
aF0.9
assF1.0
(dp142
g4
(lp143
F0.8833333333333333
aF0.9166666666666666
aF0.5333333333333333
aF0.8833333333333333
aF0.9
aF0.9
aF0.9166666666666666
aF0.9333333333333333
aF0.9
aF0.8833333333333333
assF0.5
(dp144
g4
(lp145
F0.9
aF0.9166666666666666
aF0.9166666666666666
aF0.5166666666666667
aF0.9
aF0.9
aF0.9333333333333333
aF0.95
aF0.8833333333333333
aF0.9166666666666666
assF0.75
(dp146
g4
(lp147
F0.9
aF0.9166666666666666
aF0.9
aF0.9
aF0.9333333333333333
aF0.9
aF0.9
aF0.9333333333333333
aF0.9
aF0.9
asssF0.5
(dp148
F0.0
(dp149
g4
(lp150
F0.9333333333333333
aF0.9333333333333333
aF0.9
aF0.95
aF0.9666666666666667
aF0.9166666666666666
aF0.9333333333333333
aF0.9
aF0.9166666666666666
aF0.8833333333333333
assF0.25
(dp151
g4
(lp152
F0.9166666666666666
aF0.9166666666666666
aF0.9166666666666666
aF0.9166666666666666
aF0.8833333333333333
aF0.9333333333333333
aF0.9
aF0.9166666666666666
aF0.9166666666666666
aF0.9333333333333333
assF1.0
(dp153
g4
(lp154
F0.9
aF0.9166666666666666
aF0.9
aF0.9166666666666666
aF0.6333333333333333
aF0.9166666666666666
aF0.9166666666666666
aF0.9333333333333333
aF0.9166666666666666
aF0.9
assF0.5
(dp155
g4
(lp156
F0.95
aF0.9166666666666666
aF0.9
aF0.9333333333333333
aF0.9166666666666666
aF0.8833333333333333
aF0.9166666666666666
aF0.9166666666666666
aF0.8833333333333333
aF0.9
assF0.75
(dp157
g4
(lp158
F0.9
aF0.9333333333333333
aF0.8833333333333333
aF0.9333333333333333
aF0.8833333333333333
aF0.9166666666666666
aF0.9166666666666666
aF0.8833333333333333
aF0.9166666666666666
aF0.9333333333333333
asssF0.75
(dp159
F0.0
(dp160
g4
(lp161
F0.9
aF0.9333333333333333
aF0.9
aF0.9166666666666666
aF0.9333333333333333
aF0.9166666666666666
aF0.9166666666666666
aF0.9333333333333333
aF0.9
aF0.8833333333333333
assF0.25
(dp162
g4
(lp163
F0.8833333333333333
aF0.9
aF0.8833333333333333
aF0.9333333333333333
aF0.9
aF0.9166666666666666
aF0.9166666666666666
aF0.9333333333333333
aF0.9
aF0.9
assF1.0
(dp164
g4
(lp165
F0.9
aF0.9166666666666666
aF0.8833333333333333
aF0.9
aF0.9
aF0.9166666666666666
aF0.9166666666666666
aF0.9
aF0.9
aF0.8833333333333333
assF0.5
(dp166
g4
(lp167
F0.9
aF0.9
aF0.9166666666666666
aF0.8833333333333333
aF0.9166666666666666
aF0.9
aF0.9
aF0.9166666666666666
aF0.9166666666666666
aF0.9
assF0.75
(dp168
g4
(lp169
F0.9166666666666666
aF0.8833333333333333
aF0.9333333333333333
aF0.9
aF0.9166666666666666
aF0.9166666666666666
aF0.8833333333333333
aF0.9
aF0.9166666666666666
aF0.9166666666666666
assssF0.1
(dp170
F0.0
(dp171
F0.0
(dp172
g4
(lp173
F0.0
aF0.0
aF0.0
aF0.0
aF0.0
aF0.0
aF0.0
aF0.0
aF0.0
aF0.0
assF0.25
(dp174
g4
(lp175
F0.0
aF0.0
aF0.0
aF0.0
aF0.0
aF0.0
aF0.0
aF0.0
aF0.0
aF0.0
assF1.0
(dp176
g4
(lp177
F0.0
aF0.0
aF0.0
aF0.0
aF0.0
aF0.0
aF0.0
aF0.0
aF0.0
aF0.0
assF0.5
(dp178
g4
(lp179
F0.0
aF0.0
aF0.0
aF0.0
aF0.0
aF0.0
aF0.0
aF0.0
aF0.0
aF0.0
assF0.75
(dp180
g4
(lp181
F0.0
aF0.0
aF0.0
aF0.0
aF0.0
aF0.0
aF0.0
aF0.0
aF0.0
aF0.0
asssF0.25
(dp182
F0.0
(dp183
g4
(lp184
F0.8970588235294118
aF0.8970588235294118
aF0.9117647058823529
aF0.9117647058823529
aF0.4117647058823529
aF0.9117647058823529
aF0.8970588235294118
aF0.9264705882352942
aF0.9117647058823529
aF0.9117647058823529
assF0.25
(dp185
g4
(lp186
F0.8970588235294118
aF0.8970588235294118
aF0.9117647058823529
aF0.9117647058823529
aF0.9117647058823529
aF0.8970588235294118
aF0.9117647058823529
aF0.8970588235294118
aF0.9117647058823529
aF0.8970588235294118
assF1.0
(dp187
g4
(lp188
F0.8970588235294118
aF0.8970588235294118
aF0.8970588235294118
aF0.9117647058823529
aF0.9117647058823529
aF0.9117647058823529
aF0.0
aF0.8970588235294118
aF0.9117647058823529
aF0.8970588235294118
assF0.5
(dp189
g4
(lp190
F0.8970588235294118
aF0.8970588235294118
aF0.9117647058823529
aF0.9117647058823529
aF0.8970588235294118
aF0.9117647058823529
aF0.9117647058823529
aF0.9264705882352942
aF0.8970588235294118
aF0.9117647058823529
assF0.75
(dp191
g4
(lp192
F0.9117647058823529
aF0.8970588235294118
aF0.8970588235294118
aF0.9117647058823529
aF0.8970588235294118
aF0.8970588235294118
aF0.8970588235294118
aF0.8970588235294118
aF0.8970588235294118
aF0.9117647058823529
asssF1.0
(dp193
F0.0
(dp194
g4
(lp195
F0.9117647058823529
aF0.8970588235294118
aF0.8970588235294118
aF0.9117647058823529
aF0.9117647058823529
aF0.8970588235294118
aF0.8970588235294118
aF0.9117647058823529
aF0.8970588235294118
aF0.9117647058823529
assF0.25
(dp196
g4
(lp197
F0.8970588235294118
aF0.5441176470588235
aF0.8970588235294118
aF0.9117647058823529
aF0.8970588235294118
aF0.0
aF0.8970588235294118
aF0.0
aF0.8970588235294118
aF0.9117647058823529
assF1.0
(dp198
g4
(lp199
F0.9117647058823529
aF0.8970588235294118
aF0.8970588235294118
aF0.9117647058823529
aF0.8970588235294118
aF0.8970588235294118
aF0.9117647058823529
aF0.8970588235294118
aF0.8970588235294118
aF0.9117647058823529
assF0.5
(dp200
g4
(lp201
F0.9411764705882353
aF0.9264705882352942
aF0.9117647058823529
aF0.9117647058823529
aF0.9411764705882353
aF0.8970588235294118
aF0.9411764705882353
aF0.9117647058823529
aF0.9264705882352942
aF0.9117647058823529
assF0.75
(dp202
g4
(lp203
F0.9117647058823529
aF0.8970588235294118
aF0.9558823529411765
aF0.9264705882352942
aF0.9264705882352942
aF0.9117647058823529
aF0.8970588235294118
aF0.8970588235294118
aF0.8970588235294118
aF0.9117647058823529
asssF0.5
(dp204
F0.0
(dp205
g4
(lp206
F0.8970588235294118
aF0.8970588235294118
aF0.9411764705882353
aF0.8970588235294118
aF0.9117647058823529
aF0.9117647058823529
aF0.8970588235294118
aF0.9117647058823529
aF0.8970588235294118
aF0.5147058823529411
assF0.25
(dp207
g4
(lp208
F0.9117647058823529
aF0.9117647058823529
aF0.8970588235294118
aF0.9117647058823529
aF0.5294117647058824
aF0.8970588235294118
aF0.9117647058823529
aF0.8970588235294118
aF0.9264705882352942
aF0.9117647058823529
assF1.0
(dp209
g4
(lp210
F0.9264705882352942
aF0.9264705882352942
aF0.8970588235294118
aF0.8970588235294118
aF0.8970588235294118
aF0.8970588235294118
aF0.8970588235294118
aF0.9117647058823529
aF0.9117647058823529
aF0.8970588235294118
assF0.5
(dp211
g4
(lp212
F0.9411764705882353
aF0.5588235294117647
aF0.9264705882352942
aF0.8970588235294118
aF0.9117647058823529
aF0.9117647058823529
aF0.8970588235294118
aF0.8970588235294118
aF0.9264705882352942
aF0.8970588235294118
assF0.75
(dp213
g4
(lp214
F0.9117647058823529
aF0.9264705882352942
aF0.8970588235294118
aF0.8970588235294118
aF0.9117647058823529
aF0.0
aF0.5294117647058824
aF0.8970588235294118
aF0.9117647058823529
aF0.8970588235294118
asssF0.75
(dp215
F0.0
(dp216
g4
(lp217
F0.47058823529411764
aF0.9117647058823529
aF0.8970588235294118
aF0.6029411764705882
aF0.8970588235294118
aF0.9117647058823529
aF0.8970588235294118
aF0.9264705882352942
aF0.9264705882352942
aF0.9117647058823529
assF0.25
(dp218
g4
(lp219
F0.9117647058823529
aF0.9411764705882353
aF0.9117647058823529
aF0.9117647058823529
aF0.8970588235294118
aF0.5441176470588235
aF0.8970588235294118
aF0.8970588235294118
aF0.9117647058823529
aF0.9264705882352942
assF1.0
(dp220
g4
(lp221
F0.9411764705882353
aF0.8970588235294118
aF0.9411764705882353
aF0.8970588235294118
aF0.8970588235294118
aF0.9117647058823529
aF0.9264705882352942
aF0.8970588235294118
aF0.8970588235294118
aF0.9117647058823529
assF0.5
(dp222
g4
(lp223
F0.9264705882352942
aF0.8970588235294118
aF0.8970588235294118
aF0.8970588235294118
aF0.9264705882352942
aF0.9117647058823529
aF0.8970588235294118
aF0.8970588235294118
aF0.9117647058823529
aF0.9117647058823529
assF0.75
(dp224
g4
(lp225
F0.8970588235294118
aF0.8970588235294118
aF0.8970588235294118
aF0.8970588235294118
aF0.9117647058823529
aF0.9117647058823529
aF0.8970588235294118
aF0.9117647058823529
aF0.9264705882352942
aF0.8970588235294118
assss.