(dp0
S'testset'
p1
S'black'
p2
sS'results'
p3
(dp4
F0.5
(dp5
S'ide_dec'
p6
(dp7
S'recalls'
p8
(lp9
F0.8947368421052632
aF0.8947368421052632
aF0.8947368421052632
aF0.8947368421052632
aF0.9736842105263158
aF0.8947368421052632
aF0.868421052631579
aF0.868421052631579
aF0.868421052631579
aF0.8947368421052632
aF0.8947368421052632
aF0.8947368421052632
aF0.868421052631579
aF0.8947368421052632
aF0.9210526315789473
aF0.8947368421052632
aF0.9210526315789473
aF0.9736842105263158
aF0.8421052631578947
aF0.8947368421052632
aF0.8947368421052632
aF0.8947368421052632
aF0.9473684210526315
aF0.8421052631578947
aF0.9736842105263158
aF0.8947368421052632
aF0.9210526315789473
aF0.8947368421052632
aF0.8947368421052632
aF0.9210526315789473
aF0.868421052631579
aF0.868421052631579
aF0.9736842105263158
aF0.868421052631579
aF0.8947368421052632
aF0.9473684210526315
aF0.9473684210526315
aF0.868421052631579
aF0.868421052631579
aF0.9473684210526315
aF0.9210526315789473
aF0.9473684210526315
aF0.868421052631579
aF0.9210526315789473
aF0.8947368421052632
aF0.9473684210526315
aF0.9210526315789473
aF0.9210526315789473
aF0.9210526315789473
aF0.9210526315789473
asS'recall'
p10
F0.9052631578947367
ssS'rocchio'
p11
(dp12
g8
(lp13
F0.8947368421052632
aF0.8947368421052632
aF0.8947368421052632
aF0.8947368421052632
aF0.9736842105263158
aF0.8947368421052632
aF0.868421052631579
aF0.868421052631579
aF0.868421052631579
aF0.8947368421052632
aF0.8947368421052632
aF0.8947368421052632
aF0.868421052631579
aF0.8947368421052632
aF0.9210526315789473
aF0.8947368421052632
aF0.9210526315789473
aF0.9736842105263158
aF0.8421052631578947
aF0.8947368421052632
aF0.8947368421052632
aF0.8947368421052632
aF0.9473684210526315
aF0.8421052631578947
aF0.9736842105263158
aF0.8947368421052632
aF0.9210526315789473
aF0.8947368421052632
aF0.8947368421052632
aF0.9210526315789473
aF0.868421052631579
aF0.868421052631579
aF0.9736842105263158
aF0.868421052631579
aF0.8947368421052632
aF0.9473684210526315
aF0.9473684210526315
aF0.868421052631579
aF0.868421052631579
aF0.9473684210526315
aF0.9210526315789473
aF0.9736842105263158
aF0.868421052631579
aF0.9210526315789473
aF0.8947368421052632
aF0.9473684210526315
aF0.9210526315789473
aF0.9210526315789473
aF0.9210526315789473
aF0.9210526315789473
asg10
F0.9057894736842104
ssS'ide_regular'
p14
(dp15
g8
(lp16
F0.9473684210526315
aF0.9210526315789473
aF0.13157894736842105
aF0.5789473684210527
aF0.3684210526315789
aF0.10526315789473684
aF0.8157894736842105
aF0.868421052631579
aF0.4473684210526316
aF0.5
aF0.5526315789473685
aF0.5526315789473685
aF0.21052631578947367
aF0.2894736842105263
aF0.21052631578947367
aF0.3157894736842105
aF0.5263157894736842
aF0.42105263157894735
aF0.8421052631578947
aF0.5789473684210527
aF0.8157894736842105
aF0.8947368421052632
aF0.4473684210526316
aF0.8421052631578947
aF0.5
aF0.39473684210526316
aF0.3684210526315789
aF0.8947368421052632
aF0.7105263157894737
aF0.34210526315789475
aF0.868421052631579
aF0.631578947368421
aF0.47368421052631576
aF0.868421052631579
aF0.2631578947368421
aF0.23684210526315788
aF0.3157894736842105
aF0.42105263157894735
aF0.868421052631579
aF0.5789473684210527
aF0.3157894736842105
aF0.42105263157894735
aF0.39473684210526316
aF0.21052631578947367
aF0.5789473684210527
aF0.7368421052631579
aF0.0
aF0.6052631578947368
aF0.5263157894736842
aF0.3684210526315789
asg10
F0.5215789473684209
sssF0.56
(dp17
g6
(dp18
g8
(lp19
F0.8787878787878788
aF0.9393939393939394
aF0.9090909090909091
aF0.9393939393939394
aF0.9696969696969697
aF0.9090909090909091
aF0.8787878787878788
aF0.9090909090909091
aF0.9090909090909091
aF0.8787878787878788
aF0.8484848484848485
aF0.9090909090909091
aF0.8787878787878788
aF0.9393939393939394
aF0.8484848484848485
aF0.9393939393939394
aF0.9393939393939394
aF0.9090909090909091
aF0.9090909090909091
aF0.9090909090909091
aF0.8484848484848485
aF0.8181818181818182
aF0.8484848484848485
aF0.9696969696969697
aF0.9090909090909091
aF1.0
aF0.9393939393939394
aF0.9696969696969697
aF0.8484848484848485
aF0.8787878787878788
aF0.9090909090909091
aF0.8787878787878788
aF0.8484848484848485
aF0.8787878787878788
aF0.9090909090909091
aF0.8787878787878788
aF0.9696969696969697
aF0.9090909090909091
aF0.9393939393939394
aF0.8181818181818182
aF0.9090909090909091
aF0.8787878787878788
aF0.9393939393939394
aF0.9090909090909091
aF0.9090909090909091
aF0.8787878787878788
aF0.8484848484848485
aF0.9393939393939394
aF0.9090909090909091
aF0.8484848484848485
asg10
F0.9018181818181814
ssg11
(dp20
g8
(lp21
F0.8787878787878788
aF0.9393939393939394
aF0.9090909090909091
aF0.9393939393939394
aF0.9696969696969697
aF0.9090909090909091
aF0.8787878787878788
aF0.9090909090909091
aF0.9090909090909091
aF0.8787878787878788
aF0.8484848484848485
aF0.9090909090909091
aF0.8787878787878788
aF0.9393939393939394
aF0.8484848484848485
aF0.9393939393939394
aF0.9393939393939394
aF0.9090909090909091
aF0.9090909090909091
aF0.9090909090909091
aF0.8484848484848485
aF0.8181818181818182
aF0.8484848484848485
aF0.9696969696969697
aF0.9090909090909091
aF1.0
aF0.9393939393939394
aF0.9696969696969697
aF0.8484848484848485
aF0.8787878787878788
aF0.9090909090909091
aF0.8787878787878788
aF0.8484848484848485
aF0.8787878787878788
aF0.9090909090909091
aF0.8787878787878788
aF0.9696969696969697
aF0.9090909090909091
aF0.9393939393939394
aF0.8181818181818182
aF0.9090909090909091
aF0.8787878787878788
aF0.9393939393939394
aF0.9393939393939394
aF0.9090909090909091
aF0.8787878787878788
aF0.8484848484848485
aF0.9393939393939394
aF0.9090909090909091
aF0.8484848484848485
asg10
F0.902424242424242
ssg14
(dp22
g8
(lp23
F0.8787878787878788
aF0.48484848484848486
aF0.9090909090909091
aF0.6666666666666666
aF0.9696969696969697
aF0.9090909090909091
aF0.9090909090909091
aF0.9090909090909091
aF0.696969696969697
aF0.8787878787878788
aF0.8484848484848485
aF0.7878787878787878
aF0.8787878787878788
aF0.9393939393939394
aF0.3939393939393939
aF0.9393939393939394
aF0.9393939393939394
aF0.9090909090909091
aF0.6060606060606061
aF0.06060606060606061
aF0.9090909090909091
aF0.8181818181818182
aF0.8787878787878788
aF0.45454545454545453
aF0.5757575757575758
aF1.0
aF0.18181818181818182
aF0.9696969696969697
aF0.8484848484848485
aF0.9090909090909091
aF0.36363636363636365
aF0.8787878787878788
aF0.36363636363636365
aF0.8787878787878788
aF0.9090909090909091
aF0.8787878787878788
aF0.9696969696969697
aF0.5151515151515151
aF0.9393939393939394
aF0.8181818181818182
aF0.36363636363636365
aF0.9090909090909091
aF0.9393939393939394
aF0.9393939393939394
aF0.9090909090909091
aF0.8787878787878788
aF0.8484848484848485
aF0.9393939393939394
aF0.9090909090909091
aF0.8484848484848485
asg10
F0.7812121212121209
sssF0.04
(dp24
g6
(dp25
g8
(lp26
F0.9166666666666666
aF0.3055555555555556
aF0.9027777777777778
aF0.9027777777777778
aF0.20833333333333334
aF0.0
aF0.4444444444444444
aF0.9027777777777778
aF0.9027777777777778
aF0.4166666666666667
aF0.2916666666666667
aF0.0
aF0.9027777777777778
aF0.9027777777777778
aF0.8472222222222222
aF0.2222222222222222
aF0.9305555555555556
aF0.9166666666666666
aF0.2222222222222222
aF0.9027777777777778
aF0.9027777777777778
aF0.0
aF0.0
aF0.9027777777777778
aF0.9027777777777778
aF0.9027777777777778
aF0.4444444444444444
aF0.9027777777777778
aF0.0
aF0.9166666666666666
aF0.4722222222222222
aF0.5416666666666666
aF0.4722222222222222
aF0.5416666666666666
aF0.2361111111111111
aF0.5555555555555556
aF0.9027777777777778
aF0.9027777777777778
aF0.0
aF0.9027777777777778
aF0.0
aF0.9027777777777778
aF0.5555555555555556
aF0.0
aF0.4166666666666667
aF0.9027777777777778
aF0.5
aF0.0
aF0.20833333333333334
aF0.9027777777777778
asg10
F0.5566666666666669
ssg11
(dp27
g8
(lp28
F0.9166666666666666
aF0.1111111111111111
aF0.0
aF0.9027777777777778
aF0.16666666666666666
aF0.0
aF0.3611111111111111
aF0.5
aF0.4583333333333333
aF0.20833333333333334
aF0.2638888888888889
aF0.0
aF0.9027777777777778
aF0.9027777777777778
aF0.3333333333333333
aF0.2222222222222222
aF0.9027777777777778
aF0.08333333333333333
aF0.05555555555555555
aF0.0
aF0.0
aF0.0
aF0.0
aF0.9027777777777778
aF0.0
aF0.9027777777777778
aF0.3888888888888889
aF0.0
aF0.0
aF0.3055555555555556
aF0.3333333333333333
aF0.20833333333333334
aF0.3472222222222222
aF0.2361111111111111
aF0.18055555555555555
aF0.5555555555555556
aF0.9027777777777778
aF0.9027777777777778
aF0.0
aF0.0
aF0.0
aF0.9027777777777778
aF0.5555555555555556
aF0.0
aF0.4166666666666667
aF0.9027777777777778
aF0.5
aF0.0
aF0.20833333333333334
aF0.0
asg10
F0.3388888888888889
ssg14
(dp29
g8
(lp30
F0.1527777777777778
aF0.06944444444444445
aF0.1527777777777778
aF0.08333333333333333
aF0.1388888888888889
aF0.08333333333333333
aF0.125
aF0.1111111111111111
aF0.041666666666666664
aF0.08333333333333333
aF0.05555555555555555
aF0.09722222222222222
aF0.19444444444444445
aF0.125
aF0.1111111111111111
aF0.125
aF0.1111111111111111
aF0.125
aF0.013888888888888888
aF0.125
aF0.125
aF0.1388888888888889
aF0.08333333333333333
aF0.16666666666666666
aF0.05555555555555555
aF0.1111111111111111
aF0.05555555555555555
aF0.125
aF0.1111111111111111
aF0.1388888888888889
aF0.09722222222222222
aF0.125
aF0.08333333333333333
aF0.1111111111111111
aF0.125
aF0.05555555555555555
aF0.16666666666666666
aF0.09722222222222222
aF0.1111111111111111
aF0.125
aF0.041666666666666664
aF0.1111111111111111
aF0.18055555555555555
aF0.041666666666666664
aF0.1111111111111111
aF0.1527777777777778
aF0.041666666666666664
aF0.19444444444444445
aF0.1388888888888889
aF0.08333333333333333
asg10
F0.1086111111111111
sssF0.22
(dp31
g6
(dp32
g8
(lp33
F0.9491525423728814
aF0.9322033898305084
aF0.8983050847457628
aF0.8983050847457628
aF0.9152542372881356
aF0.9322033898305084
aF0.9152542372881356
aF0.9152542372881356
aF0.9152542372881356
aF0.9152542372881356
aF0.9322033898305084
aF0.9322033898305084
aF0.8983050847457628
aF0.9152542372881356
aF0.9322033898305084
aF0.8983050847457628
aF0.8983050847457628
aF0.9491525423728814
aF0.9152542372881356
aF0.8983050847457628
aF0.8983050847457628
aF0.8983050847457628
aF0.8983050847457628
aF0.9322033898305084
aF0.8813559322033898
aF0.9152542372881356
aF0.9152542372881356
aF0.9152542372881356
aF0.8983050847457628
aF0.9322033898305084
aF0.8813559322033898
aF0.9152542372881356
aF0.8983050847457628
aF0.8983050847457628
aF0.8813559322033898
aF0.8813559322033898
aF0.8983050847457628
aF0.9322033898305084
aF0.8983050847457628
aF0.8813559322033898
aF0.9152542372881356
aF0.8983050847457628
aF0.9322033898305084
aF0.8813559322033898
aF0.9152542372881356
aF0.8983050847457628
aF0.9152542372881356
aF0.8983050847457628
aF0.9322033898305084
aF0.8813559322033898
asg10
F0.9094915254237289
ssg11
(dp34
g8
(lp35
F0.5932203389830508
aF0.559322033898305
aF0.8983050847457628
aF0.8983050847457628
aF0.9152542372881356
aF0.9491525423728814
aF0.9152542372881356
aF0.9152542372881356
aF0.9322033898305084
aF0.9152542372881356
aF0.5254237288135594
aF0.423728813559322
aF0.8983050847457628
aF0.423728813559322
aF0.9322033898305084
aF0.8983050847457628
aF0.8983050847457628
aF0.9491525423728814
aF0.9152542372881356
aF0.4915254237288136
aF0.8983050847457628
aF0.8983050847457628
aF0.8983050847457628
aF0.9322033898305084
aF0.8813559322033898
aF0.9152542372881356
aF0.9152542372881356
aF0.22033898305084745
aF0.8983050847457628
aF0.9322033898305084
aF0.8813559322033898
aF0.9152542372881356
aF0.1864406779661017
aF0.1864406779661017
aF0.8813559322033898
aF0.8813559322033898
aF0.8983050847457628
aF0.4406779661016949
aF0.9322033898305084
aF0.8813559322033898
aF0.4406779661016949
aF0.8983050847457628
aF0.559322033898305
aF0.8813559322033898
aF0.3389830508474576
aF0.8983050847457628
aF0.9322033898305084
aF0.8983050847457628
aF0.288135593220339
aF0.9152542372881356
asg10
F0.7674576271186442
ssg14
(dp36
g8
(lp37
F0.2033898305084746
aF0.2033898305084746
aF0.1016949152542373
aF0.23728813559322035
aF0.13559322033898305
aF0.288135593220339
aF0.288135593220339
aF0.13559322033898305
aF0.3050847457627119
aF0.22033898305084745
aF0.3050847457627119
aF0.13559322033898305
aF0.13559322033898305
aF0.0847457627118644
aF0.1864406779661017
aF0.2033898305084746
aF0.23728813559322035
aF0.1864406779661017
aF0.1694915254237288
aF0.288135593220339
aF0.23728813559322035
aF0.3559322033898305
aF0.1694915254237288
aF0.11864406779661017
aF0.3050847457627119
aF0.2033898305084746
aF0.23728813559322035
aF0.1864406779661017
aF0.11864406779661017
aF0.0
aF0.22033898305084745
aF0.2542372881355932
aF0.0847457627118644
aF0.13559322033898305
aF0.2542372881355932
aF0.13559322033898305
aF0.13559322033898305
aF0.2711864406779661
aF0.13559322033898305
aF0.1864406779661017
aF0.2542372881355932
aF0.2711864406779661
aF0.2033898305084746
aF0.1864406779661017
aF0.1694915254237288
aF0.15254237288135594
aF0.22033898305084745
aF0.2033898305084746
aF0.13559322033898305
aF0.11864406779661017
asg10
F0.19423728813559318
sssF0.36
(dp38
g6
(dp39
g8
(lp40
F0.8958333333333334
aF0.9375
aF0.9375
aF0.9375
aF0.8958333333333334
aF0.8958333333333334
aF0.9166666666666666
aF0.9166666666666666
aF0.9166666666666666
aF0.9583333333333334
aF0.875
aF0.875
aF0.9166666666666666
aF0.9166666666666666
aF0.875
aF0.9166666666666666
aF0.8958333333333334
aF0.9166666666666666
aF0.9375
aF0.8958333333333334
aF0.9166666666666666
aF0.9166666666666666
aF0.9166666666666666
aF0.9166666666666666
aF0.9375
aF0.8541666666666666
aF0.9166666666666666
aF0.8958333333333334
aF0.875
aF0.9166666666666666
aF0.8958333333333334
aF0.9375
aF0.8958333333333334
aF0.8958333333333334
aF0.8958333333333334
aF0.9166666666666666
aF0.9166666666666666
aF0.8958333333333334
aF0.9791666666666666
aF0.9375
aF0.5416666666666666
aF0.9166666666666666
aF0.875
aF0.8958333333333334
aF0.8958333333333334
aF0.8958333333333334
aF0.8958333333333334
aF0.8958333333333334
aF0.9166666666666666
aF0.8958333333333334
asg10
F0.9016666666666667
ssg11
(dp41
g8
(lp42
F0.8958333333333334
aF0.9375
aF0.9375
aF0.9375
aF0.8958333333333334
aF0.8958333333333334
aF0.9166666666666666
aF0.9166666666666666
aF0.9166666666666666
aF0.9583333333333334
aF0.875
aF0.875
aF0.9166666666666666
aF0.9166666666666666
aF0.875
aF0.9166666666666666
aF0.9375
aF0.9166666666666666
aF0.9375
aF0.8958333333333334
aF0.9166666666666666
aF0.9375
aF0.9166666666666666
aF0.9166666666666666
aF0.9583333333333334
aF0.8541666666666666
aF0.9166666666666666
aF0.8958333333333334
aF0.875
aF0.9166666666666666
aF0.8958333333333334
aF0.9375
aF0.8958333333333334
aF0.8958333333333334
aF0.8958333333333334
aF0.9166666666666666
aF0.9166666666666666
aF0.9166666666666666
aF0.9791666666666666
aF0.9375
aF0.5416666666666666
aF0.9166666666666666
aF0.875
aF0.8958333333333334
aF0.9166666666666666
aF0.8958333333333334
aF0.8958333333333334
aF0.8958333333333334
aF0.9166666666666666
aF0.8958333333333334
asg10
F0.9041666666666666
ssg14
(dp43
g8
(lp44
F0.10416666666666667
aF0.10416666666666667
aF0.3125
aF0.125
aF0.08333333333333333
aF0.22916666666666666
aF0.125
aF0.2916666666666667
aF0.20833333333333334
aF0.3125
aF0.20833333333333334
aF0.125
aF0.25
aF0.08333333333333333
aF0.22916666666666666
aF0.2916666666666667
aF0.14583333333333334
aF0.3333333333333333
aF0.20833333333333334
aF0.20833333333333334
aF0.14583333333333334
aF0.2916666666666667
aF0.10416666666666667
aF0.25
aF0.1875
aF0.3125
aF0.125
aF0.2708333333333333
aF0.2708333333333333
aF0.0625
aF0.10416666666666667
aF0.2708333333333333
aF0.3125
aF0.10416666666666667
aF0.10416666666666667
aF0.2708333333333333
aF0.25
aF0.3125
aF0.125
aF0.125
aF0.10416666666666667
aF0.22916666666666666
aF0.3333333333333333
aF0.2916666666666667
aF0.3333333333333333
aF0.0
aF0.125
aF0.10416666666666667
aF0.3125
aF0.125
asg10
F0.19875
sssF0.38
(dp45
g6
(dp46
g8
(lp47
F0.8936170212765957
aF0.9361702127659575
aF0.9148936170212766
aF0.8936170212765957
aF0.8723404255319149
aF0.8936170212765957
aF0.8936170212765957
aF0.8723404255319149
aF0.9148936170212766
aF0.8936170212765957
aF0.8936170212765957
aF0.9148936170212766
aF0.8723404255319149
aF0.9361702127659575
aF0.9148936170212766
aF0.9148936170212766
aF0.8723404255319149
aF0.8723404255319149
aF0.9787234042553191
aF0.8936170212765957
aF0.9361702127659575
aF0.9148936170212766
aF0.8723404255319149
aF0.9148936170212766
aF0.9361702127659575
aF0.9148936170212766
aF0.9574468085106383
aF0.8723404255319149
aF0.8936170212765957
aF0.8936170212765957
aF0.9148936170212766
aF0.8936170212765957
aF0.8936170212765957
aF0.9574468085106383
aF0.9148936170212766
aF0.8936170212765957
aF0.9361702127659575
aF0.8936170212765957
aF0.8936170212765957
aF0.8936170212765957
aF0.9148936170212766
aF0.9148936170212766
aF0.8936170212765957
aF0.9361702127659575
aF0.9148936170212766
aF0.8936170212765957
aF0.8936170212765957
aF0.9148936170212766
aF0.8723404255319149
aF0.8936170212765957
asg10
F0.9055319148936178
ssg11
(dp48
g8
(lp49
F0.8936170212765957
aF0.9361702127659575
aF0.9361702127659575
aF0.8936170212765957
aF0.8723404255319149
aF0.8936170212765957
aF0.8936170212765957
aF0.8723404255319149
aF0.9148936170212766
aF0.8936170212765957
aF0.8936170212765957
aF0.9361702127659575
aF0.8723404255319149
aF0.9361702127659575
aF0.9148936170212766
aF0.9148936170212766
aF0.8723404255319149
aF0.8723404255319149
aF0.9787234042553191
aF0.8936170212765957
aF0.9361702127659575
aF0.9148936170212766
aF0.8723404255319149
aF0.9148936170212766
aF0.9361702127659575
aF0.5319148936170213
aF0.9574468085106383
aF0.8936170212765957
aF0.8936170212765957
aF0.8936170212765957
aF0.9148936170212766
aF0.8936170212765957
aF0.8936170212765957
aF0.9574468085106383
aF0.9148936170212766
aF0.8936170212765957
aF0.9574468085106383
aF0.8936170212765957
aF0.8936170212765957
aF0.8936170212765957
aF0.9574468085106383
aF0.9148936170212766
aF0.8936170212765957
aF0.9361702127659575
aF0.9148936170212766
aF0.8936170212765957
aF0.9148936170212766
aF0.9361702127659575
aF0.8723404255319149
aF0.8936170212765957
asg10
F0.9012765957446816
ssg14
(dp50
g8
(lp51
F0.23404255319148937
aF0.0851063829787234
aF0.2127659574468085
aF0.14893617021276595
aF0.0851063829787234
aF0.3404255319148936
aF0.1702127659574468
aF0.2978723404255319
aF0.1276595744680851
aF0.23404255319148937
aF0.2127659574468085
aF0.23404255319148937
aF0.14893617021276595
aF0.19148936170212766
aF0.1702127659574468
aF0.10638297872340426
aF0.1702127659574468
aF0.23404255319148937
aF0.2978723404255319
aF0.1702127659574468
aF0.3617021276595745
aF0.0
aF0.1276595744680851
aF0.23404255319148937
aF0.23404255319148937
aF0.2765957446808511
aF0.10638297872340426
aF0.2553191489361702
aF0.23404255319148937
aF0.1702127659574468
aF0.23404255319148937
aF0.23404255319148937
aF0.40425531914893614
aF0.3191489361702128
aF0.3617021276595745
aF0.1702127659574468
aF0.19148936170212766
aF0.3191489361702128
aF0.48936170212765956
aF0.2553191489361702
aF0.2765957446808511
aF0.2553191489361702
aF0.3404255319148936
aF0.0851063829787234
aF0.2127659574468085
aF0.10638297872340426
aF0.19148936170212766
aF0.19148936170212766
aF0.2765957446808511
aF0.19148936170212766
asg10
F0.21957446808510647
sssF0.12
(dp52
g6
(dp53
g8
(lp54
F0.9242424242424242
aF0.9242424242424242
aF0.9090909090909091
aF0.8939393939393939
aF0.9090909090909091
aF0.8939393939393939
aF0.9090909090909091
aF0.9242424242424242
aF0.8939393939393939
aF0.8939393939393939
aF0.8939393939393939
aF0.9090909090909091
aF0.9393939393939394
aF0.9242424242424242
aF0.8939393939393939
aF0.9090909090909091
aF0.9242424242424242
aF0.9090909090909091
aF0.9090909090909091
aF0.8939393939393939
aF0.8939393939393939
aF0.9090909090909091
aF0.8939393939393939
aF0.9090909090909091
aF0.9090909090909091
aF0.8939393939393939
aF0.9090909090909091
aF0.9393939393939394
aF0.42424242424242425
aF0.8939393939393939
aF0.8939393939393939
aF0.8939393939393939
aF0.9090909090909091
aF0.8939393939393939
aF0.9393939393939394
aF0.9242424242424242
aF0.8939393939393939
aF0.9090909090909091
aF0.8939393939393939
aF0.8939393939393939
aF0.9090909090909091
aF0.9090909090909091
aF0.5303030303030303
aF0.9393939393939394
aF0.9090909090909091
aF0.9242424242424242
aF0.8939393939393939
aF0.9090909090909091
aF0.9090909090909091
aF0.8939393939393939
asg10
F0.8906060606060601
ssg11
(dp55
g8
(lp56
F0.9242424242424242
aF0.9242424242424242
aF0.42424242424242425
aF0.8939393939393939
aF0.9090909090909091
aF0.8939393939393939
aF0.3484848484848485
aF0.9393939393939394
aF0.8939393939393939
aF0.8939393939393939
aF0.8939393939393939
aF0.9090909090909091
aF0.9393939393939394
aF0.9393939393939394
aF0.8939393939393939
aF0.4696969696969697
aF0.5
aF0.8939393939393939
aF0.5
aF0.21212121212121213
aF0.8939393939393939
aF0.9090909090909091
aF0.8939393939393939
aF0.9090909090909091
aF0.4696969696969697
aF0.8939393939393939
aF0.9090909090909091
aF0.9848484848484849
aF0.42424242424242425
aF0.8939393939393939
aF0.0
aF0.8939393939393939
aF0.9090909090909091
aF0.9090909090909091
aF0.0
aF0.9242424242424242
aF0.8939393939393939
aF0.2727272727272727
aF0.8939393939393939
aF0.8939393939393939
aF0.9090909090909091
aF0.0
aF0.5303030303030303
aF0.9393939393939394
aF0.9090909090909091
aF0.9242424242424242
aF0.8939393939393939
aF0.9242424242424242
aF0.5
aF0.8939393939393939
asg10
F0.7478787878787878
ssg14
(dp57
g8
(lp58
F0.16666666666666666
aF0.19696969696969696
aF0.12121212121212122
aF0.13636363636363635
aF0.12121212121212122
aF0.12121212121212122
aF0.12121212121212122
aF0.16666666666666666
aF0.24242424242424243
aF0.25757575757575757
aF0.18181818181818182
aF0.06060606060606061
aF0.09090909090909091
aF0.15151515151515152
aF0.12121212121212122
aF0.09090909090909091
aF0.07575757575757576
aF0.06060606060606061
aF0.16666666666666666
aF0.13636363636363635
aF0.045454545454545456
aF0.15151515151515152
aF0.09090909090909091
aF0.15151515151515152
aF0.045454545454545456
aF0.13636363636363635
aF0.15151515151515152
aF0.13636363636363635
aF0.13636363636363635
aF0.10606060606060606
aF0.12121212121212122
aF0.15151515151515152
aF0.22727272727272727
aF0.12121212121212122
aF0.21212121212121213
aF0.21212121212121213
aF0.015151515151515152
aF0.12121212121212122
aF0.12121212121212122
aF0.22727272727272727
aF0.15151515151515152
aF0.19696969696969696
aF0.18181818181818182
aF0.16666666666666666
aF0.10606060606060606
aF0.10606060606060606
aF0.13636363636363635
aF0.21212121212121213
aF0.07575757575757576
aF0.15151515151515152
asg10
F0.13909090909090907
sssF0.02
(dp59
g6
(dp60
g8
(lp61
F0.35135135135135137
aF0.9054054054054054
aF0.2702702702702703
aF0.0
aF0.0
aF0.20270270270270271
aF0.0
aF0.0
aF0.2702702702702703
aF0.0
aF0.0
aF0.9054054054054054
aF0.3783783783783784
aF0.17567567567567569
aF0.2702702702702703
aF0.2702702702702703
aF0.10810810810810811
aF0.0
aF0.0
aF0.0
aF0.0
aF0.24324324324324326
aF0.0
aF0.40540540540540543
aF0.7162162162162162
aF0.10810810810810811
aF0.0
aF0.0
aF0.35135135135135137
aF0.2702702702702703
aF0.0
aF0.24324324324324326
aF0.9054054054054054
aF0.0
aF0.0
aF0.0
aF0.3108108108108108
aF0.20270270270270271
aF0.7162162162162162
aF0.10810810810810811
aF0.0
aF0.2702702702702703
aF0.0
aF0.0
aF0.0
aF0.9054054054054054
aF0.7162162162162162
aF0.9054054054054054
aF0.0
aF0.0
asg10
F0.2297297297297297
ssg11
(dp62
g8
(lp63
F0.35135135135135137
aF0.9054054054054054
aF0.2702702702702703
aF0.08108108108108109
aF0.0
aF0.0945945945945946
aF0.0
aF0.0
aF0.2702702702702703
aF0.0
aF0.0
aF0.9054054054054054
aF0.35135135135135137
aF0.12162162162162163
aF0.21621621621621623
aF0.2702702702702703
aF0.06756756756756757
aF0.0945945945945946
aF0.08108108108108109
aF0.0
aF0.08108108108108109
aF0.16216216216216217
aF0.0
aF0.28378378378378377
aF0.4594594594594595
aF0.06756756756756757
aF0.16216216216216217
aF0.0
aF0.35135135135135137
aF0.2702702702702703
aF0.06756756756756757
aF0.16216216216216217
aF0.9054054054054054
aF0.0
aF0.0
aF0.0
aF0.1891891891891892
aF0.05405405405405406
aF0.4594594594594595
aF0.06756756756756757
aF0.10810810810810811
aF0.2702702702702703
aF0.0
aF0.0
aF0.0
aF0.9054054054054054
aF0.4594594594594595
aF0.9054054054054054
aF0.0
aF0.0
asg10
F0.20945945945945948
ssg14
(dp64
g8
(lp65
F0.06756756756756757
aF0.04054054054054054
aF0.12162162162162163
aF0.02702702702702703
aF0.013513513513513514
aF0.06756756756756757
aF0.06756756756756757
aF0.0945945945945946
aF0.12162162162162163
aF0.02702702702702703
aF0.02702702702702703
aF0.02702702702702703
aF0.08108108108108109
aF0.02702702702702703
aF0.04054054054054054
aF0.12162162162162163
aF0.02702702702702703
aF0.0
aF0.02702702702702703
aF0.06756756756756757
aF0.02702702702702703
aF0.06756756756756757
aF0.10810810810810811
aF0.12162162162162163
aF0.0
aF0.02702702702702703
aF0.04054054054054054
aF0.02702702702702703
aF0.06756756756756757
aF0.12162162162162163
aF0.06756756756756757
aF0.06756756756756757
aF0.04054054054054054
aF0.10810810810810811
aF0.05405405405405406
aF0.10810810810810811
aF0.13513513513513514
aF0.05405405405405406
aF0.0
aF0.02702702702702703
aF0.10810810810810811
aF0.12162162162162163
aF0.06756756756756757
aF0.06756756756756757
aF0.013513513513513514
aF0.04054054054054054
aF0.0
aF0.02702702702702703
aF0.02702702702702703
aF0.06756756756756757
asg10
F0.058108108108108104
sssF0.68
(dp66
g6
(dp67
g8
(lp68
F0.9166666666666666
aF0.9166666666666666
aF0.875
aF0.875
aF1.0
aF0.875
aF0.9166666666666666
aF0.9166666666666666
aF0.75
aF0.9583333333333334
aF0.9166666666666666
aF0.875
aF0.9166666666666666
aF0.875
aF0.9166666666666666
aF0.875
aF0.8333333333333334
aF0.875
aF0.875
aF0.875
aF0.9583333333333334
aF0.9166666666666666
aF0.9166666666666666
aF0.9166666666666666
aF0.9583333333333334
aF0.8333333333333334
aF0.875
aF0.8333333333333334
aF0.9583333333333334
aF0.9166666666666666
aF0.8333333333333334
aF0.8333333333333334
aF0.9166666666666666
aF0.9166666666666666
aF0.875
aF0.875
aF0.9583333333333334
aF0.9166666666666666
aF0.9583333333333334
aF0.9166666666666666
aF0.9166666666666666
aF0.8333333333333334
aF0.875
aF0.875
aF0.7916666666666666
aF0.875
aF0.9166666666666666
aF0.875
aF0.9583333333333334
aF0.8333333333333334
asg10
F0.8933333333333334
ssg11
(dp69
g8
(lp70
F0.9166666666666666
aF0.9166666666666666
aF0.875
aF0.875
aF1.0
aF0.875
aF0.9166666666666666
aF0.9166666666666666
aF0.75
aF0.9583333333333334
aF0.9166666666666666
aF0.875
aF0.9166666666666666
aF0.875
aF0.9166666666666666
aF0.875
aF0.8333333333333334
aF0.875
aF0.875
aF0.875
aF0.9583333333333334
aF0.9166666666666666
aF0.9166666666666666
aF0.9166666666666666
aF0.9583333333333334
aF0.8333333333333334
aF0.875
aF0.8333333333333334
aF0.9583333333333334
aF0.9166666666666666
aF0.8333333333333334
aF0.8333333333333334
aF0.9166666666666666
aF0.9166666666666666
aF0.875
aF0.875
aF0.9583333333333334
aF0.9166666666666666
aF0.9583333333333334
aF0.9166666666666666
aF0.9166666666666666
aF0.8333333333333334
aF0.875
aF0.875
aF0.7916666666666666
aF0.875
aF0.9166666666666666
aF0.875
aF0.9583333333333334
aF0.8333333333333334
asg10
F0.8933333333333334
ssg14
(dp71
g8
(lp72
F0.9166666666666666
aF0.9166666666666666
aF0.875
aF0.875
aF1.0
aF0.875
aF0.9166666666666666
aF0.9166666666666666
aF0.75
aF0.125
aF0.9166666666666666
aF0.875
aF0.9166666666666666
aF0.9166666666666666
aF0.9166666666666666
aF0.875
aF0.8333333333333334
aF0.875
aF0.9166666666666666
aF0.875
aF0.9583333333333334
aF0.9166666666666666
aF0.9166666666666666
aF0.9583333333333334
aF0.9583333333333334
aF0.8333333333333334
aF0.875
aF0.875
aF0.9583333333333334
aF0.4583333333333333
aF0.8333333333333334
aF0.8333333333333334
aF0.9166666666666666
aF0.9166666666666666
aF0.875
aF0.875
aF0.9583333333333334
aF0.9166666666666666
aF0.9583333333333334
aF0.9166666666666666
aF0.9166666666666666
aF0.8333333333333334
aF0.875
aF0.0
aF0.7916666666666666
aF0.875
aF0.9166666666666666
aF0.875
aF0.9583333333333334
aF0.8333333333333334
asg10
F0.8533333333333332
sssF0.58
(dp73
g6
(dp74
g8
(lp75
F0.90625
aF0.875
aF0.9375
aF0.875
aF0.90625
aF0.84375
aF0.90625
aF0.90625
aF0.875
aF0.9375
aF0.9375
aF0.9375
aF0.875
aF0.875
aF0.9375
aF0.84375
aF0.96875
aF0.90625
aF0.875
aF0.875
aF0.875
aF0.9375
aF0.9375
aF0.90625
aF0.96875
aF0.8125
aF0.9375
aF0.875
aF0.90625
aF0.84375
aF0.90625
aF0.96875
aF0.84375
aF1.0
aF0.90625
aF0.9375
aF0.90625
aF0.90625
aF0.96875
aF0.90625
aF0.84375
aF0.90625
aF0.96875
aF0.96875
aF0.875
aF0.96875
aF0.9375
aF0.90625
aF0.84375
aF0.90625
asg10
F0.9075
ssg11
(dp76
g8
(lp77
F0.90625
aF0.875
aF0.9375
aF0.875
aF0.90625
aF0.875
aF0.90625
aF0.90625
aF0.875
aF0.9375
aF0.9375
aF0.9375
aF0.875
aF0.875
aF0.9375
aF0.84375
aF0.96875
aF0.90625
aF0.875
aF0.875
aF0.875
aF0.9375
aF0.9375
aF0.90625
aF0.96875
aF0.8125
aF0.9375
aF0.875
aF0.90625
aF0.84375
aF0.90625
aF0.96875
aF0.84375
aF1.0
aF0.90625
aF0.9375
aF0.90625
aF0.90625
aF0.96875
aF0.90625
aF0.84375
aF0.90625
aF0.96875
aF0.96875
aF0.875
aF0.96875
aF0.9375
aF0.5
aF0.84375
aF0.90625
asg10
F0.9
ssg14
(dp78
g8
(lp79
F0.90625
aF0.875
aF0.65625
aF0.875
aF0.90625
aF0.875
aF0.90625
aF0.25
aF0.90625
aF0.25
aF0.9375
aF0.9375
aF0.28125
aF0.90625
aF0.9375
aF0.25
aF0.96875
aF0.9375
aF0.875
aF0.90625
aF0.875
aF0.46875
aF0.9375
aF0.9375
aF0.96875
aF0.375
aF0.9375
aF0.875
aF0.90625
aF0.84375
aF0.90625
aF0.5625
aF0.84375
aF0.25
aF0.90625
aF0.9375
aF0.9375
aF0.4375
aF0.46875
aF0.1875
aF0.875
aF0.84375
aF0.46875
aF0.96875
aF0.875
aF0.96875
aF0.9375
aF0.40625
aF0.84375
aF0.90625
asg10
F0.76
sssF0.24
(dp80
g6
(dp81
g8
(lp82
F0.9473684210526315
aF0.9298245614035088
aF0.9122807017543859
aF0.9298245614035088
aF0.8771929824561403
aF0.8947368421052632
aF0.8947368421052632
aF0.9122807017543859
aF0.9298245614035088
aF0.8947368421052632
aF0.9122807017543859
aF0.8947368421052632
aF0.8947368421052632
aF0.8771929824561403
aF0.9298245614035088
aF0.8947368421052632
aF0.8771929824561403
aF0.9473684210526315
aF0.9122807017543859
aF0.9122807017543859
aF0.543859649122807
aF0.9298245614035088
aF0.9122807017543859
aF0.8947368421052632
aF0.8771929824561403
aF0.8947368421052632
aF0.8947368421052632
aF0.9122807017543859
aF0.9298245614035088
aF0.8947368421052632
aF0.9122807017543859
aF0.8771929824561403
aF0.8771929824561403
aF0.9122807017543859
aF0.8947368421052632
aF0.9298245614035088
aF0.8947368421052632
aF0.9122807017543859
aF0.9298245614035088
aF0.9122807017543859
aF0.9298245614035088
aF0.8771929824561403
aF0.8947368421052632
aF0.8947368421052632
aF0.8947368421052632
aF0.9298245614035088
aF0.8947368421052632
aF0.9298245614035088
aF0.8947368421052632
aF0.8947368421052632
asg10
F0.8989473684210522
ssg11
(dp83
g8
(lp84
F0.9473684210526315
aF0.5087719298245614
aF0.9122807017543859
aF0.49122807017543857
aF0.8771929824561403
aF0.8947368421052632
aF0.8947368421052632
aF0.42105263157894735
aF0.9298245614035088
aF0.8947368421052632
aF0.9122807017543859
aF0.8947368421052632
aF0.8947368421052632
aF0.8771929824561403
aF0.9298245614035088
aF0.8947368421052632
aF0.8771929824561403
aF0.42105263157894735
aF0.9122807017543859
aF0.5964912280701754
aF0.543859649122807
aF0.9298245614035088
aF0.9122807017543859
aF0.8947368421052632
aF0.8771929824561403
aF0.8947368421052632
aF0.8947368421052632
aF0.9122807017543859
aF0.8596491228070176
aF0.8947368421052632
aF0.9122807017543859
aF0.8771929824561403
aF0.8771929824561403
aF0.9122807017543859
aF0.8947368421052632
aF0.5964912280701754
aF0.8947368421052632
aF0.9122807017543859
aF0.9298245614035088
aF0.9122807017543859
aF0.9298245614035088
aF0.8771929824561403
aF0.8947368421052632
aF0.8947368421052632
aF0.9298245614035088
aF0.9298245614035088
aF0.3508771929824561
aF0.9298245614035088
aF0.8947368421052632
aF0.8947368421052632
asg10
F0.8368421052631575
ssg14
(dp85
g8
(lp86
F0.24561403508771928
aF0.21052631578947367
aF0.15789473684210525
aF0.07017543859649122
aF0.10526315789473684
aF0.2982456140350877
aF0.17543859649122806
aF0.17543859649122806
aF0.3508771929824561
aF0.12280701754385964
aF0.17543859649122806
aF0.17543859649122806
aF0.24561403508771928
aF0.2807017543859649
aF0.2631578947368421
aF0.14035087719298245
aF0.17543859649122806
aF0.15789473684210525
aF0.2982456140350877
aF0.17543859649122806
aF0.22807017543859648
aF0.2631578947368421
aF0.3157894736842105
aF0.24561403508771928
aF0.19298245614035087
aF0.21052631578947367
aF0.12280701754385964
aF0.12280701754385964
aF0.21052631578947367
aF0.17543859649122806
aF0.12280701754385964
aF0.19298245614035087
aF0.19298245614035087
aF0.14035087719298245
aF0.2631578947368421
aF0.21052631578947367
aF0.14035087719298245
aF0.15789473684210525
aF0.2982456140350877
aF0.21052631578947367
aF0.22807017543859648
aF0.2807017543859649
aF0.17543859649122806
aF0.24561403508771928
aF0.17543859649122806
aF0.10526315789473684
aF0.08771929824561403
aF0.17543859649122806
aF0.2631578947368421
aF0.19298245614035087
asg10
F0.19894736842105257
sssF0.26
(dp87
g6
(dp88
g8
(lp89
F0.9107142857142857
aF0.9107142857142857
aF0.8928571428571429
aF0.8928571428571429
aF0.9285714285714286
aF0.9107142857142857
aF0.9107142857142857
aF0.8928571428571429
aF0.9107142857142857
aF0.8928571428571429
aF0.9285714285714286
aF0.9107142857142857
aF0.9107142857142857
aF0.8928571428571429
aF0.8928571428571429
aF0.9107142857142857
aF0.8928571428571429
aF0.8928571428571429
aF0.9464285714285714
aF0.8928571428571429
aF0.9107142857142857
aF0.9107142857142857
aF0.875
aF0.9285714285714286
aF0.8928571428571429
aF0.8928571428571429
aF0.9285714285714286
aF0.8928571428571429
aF0.875
aF0.9285714285714286
aF0.9107142857142857
aF0.9285714285714286
aF0.9285714285714286
aF0.8928571428571429
aF0.9107142857142857
aF0.9107142857142857
aF0.8928571428571429
aF0.9107142857142857
aF0.9107142857142857
aF0.9107142857142857
aF0.8928571428571429
aF0.8928571428571429
aF0.8928571428571429
aF0.9107142857142857
aF0.9107142857142857
aF0.8928571428571429
aF0.9285714285714286
aF0.8928571428571429
aF0.9107142857142857
aF0.9285714285714286
asg10
F0.9064285714285716
ssg11
(dp90
g8
(lp91
F0.9107142857142857
aF0.9107142857142857
aF0.21428571428571427
aF0.8928571428571429
aF0.9285714285714286
aF0.9107142857142857
aF0.9285714285714286
aF0.8928571428571429
aF0.9285714285714286
aF0.8928571428571429
aF0.9464285714285714
aF0.9107142857142857
aF0.9107142857142857
aF0.23214285714285715
aF0.8928571428571429
aF0.9107142857142857
aF0.8928571428571429
aF0.16071428571428573
aF0.5
aF0.8928571428571429
aF0.9107142857142857
aF0.9107142857142857
aF0.875
aF0.9285714285714286
aF0.9285714285714286
aF0.8928571428571429
aF0.9285714285714286
aF0.9285714285714286
aF0.875
aF0.9464285714285714
aF0.9107142857142857
aF0.9285714285714286
aF0.9285714285714286
aF0.8928571428571429
aF0.9107142857142857
aF0.5535714285714286
aF0.9285714285714286
aF0.9285714285714286
aF0.9107142857142857
aF0.9107142857142857
aF0.8928571428571429
aF0.8928571428571429
aF0.8928571428571429
aF0.9107142857142857
aF0.9107142857142857
aF0.8928571428571429
aF0.9285714285714286
aF0.8928571428571429
aF0.9107142857142857
aF0.9285714285714286
asg10
F0.8528571428571429
ssg14
(dp92
g8
(lp93
F0.23214285714285715
aF0.08928571428571429
aF0.21428571428571427
aF0.25
aF0.23214285714285715
aF0.07142857142857142
aF0.21428571428571427
aF0.17857142857142858
aF0.17857142857142858
aF0.21428571428571427
aF0.23214285714285715
aF0.30357142857142855
aF0.2857142857142857
aF0.10714285714285714
aF0.14285714285714285
aF0.17857142857142858
aF0.08928571428571429
aF0.125
aF0.14285714285714285
aF0.10714285714285714
aF0.125
aF0.19642857142857142
aF0.30357142857142855
aF0.14285714285714285
aF0.21428571428571427
aF0.16071428571428573
aF0.25
aF0.23214285714285715
aF0.17857142857142858
aF0.23214285714285715
aF0.19642857142857142
aF0.17857142857142858
aF0.21428571428571427
aF0.21428571428571427
aF0.25
aF0.25
aF0.26785714285714285
aF0.17857142857142858
aF0.2857142857142857
aF0.25
aF0.26785714285714285
aF0.25
aF0.10714285714285714
aF0.19642857142857142
aF0.125
aF0.125
aF0.19642857142857142
aF0.17857142857142858
aF0.25
aF0.19642857142857142
asg10
F0.19607142857142856
sssF0.08
(dp94
g6
(dp95
g8
(lp96
F0.9130434782608695
aF0.927536231884058
aF0.8985507246376812
aF0.8985507246376812
aF0.8985507246376812
aF0.8985507246376812
aF0.8985507246376812
aF0.8985507246376812
aF0.0
aF0.0
aF0.8985507246376812
aF0.9130434782608695
aF0.8985507246376812
aF0.8985507246376812
aF0.9130434782608695
aF0.5072463768115942
aF0.8985507246376812
aF0.9420289855072463
aF0.927536231884058
aF0.8985507246376812
aF0.9130434782608695
aF0.8985507246376812
aF0.8985507246376812
aF0.8985507246376812
aF0.4782608695652174
aF0.9130434782608695
aF0.8985507246376812
aF0.9130434782608695
aF0.9130434782608695
aF0.4492753623188406
aF0.8985507246376812
aF0.9130434782608695
aF0.8985507246376812
aF0.9130434782608695
aF0.8985507246376812
aF0.9130434782608695
aF0.8985507246376812
aF0.8985507246376812
aF0.8985507246376812
aF0.0
aF0.8985507246376812
aF0.8985507246376812
aF0.5507246376811594
aF0.0
aF0.8985507246376812
aF0.9130434782608695
aF0.9130434782608695
aF0.8985507246376812
aF0.927536231884058
aF0.9130434782608695
asg10
F0.8008695652173909
ssg11
(dp97
g8
(lp98
F0.30434782608695654
aF0.927536231884058
aF0.5652173913043478
aF0.8985507246376812
aF0.8985507246376812
aF0.8985507246376812
aF0.3333333333333333
aF0.8985507246376812
aF0.0
aF0.0
aF0.2028985507246377
aF0.9130434782608695
aF0.8985507246376812
aF0.9130434782608695
aF0.9130434782608695
aF0.30434782608695654
aF0.8985507246376812
aF0.9420289855072463
aF0.5797101449275363
aF0.8985507246376812
aF0.2608695652173913
aF0.8985507246376812
aF0.5362318840579711
aF0.8985507246376812
aF0.4782608695652174
aF0.3333333333333333
aF0.8985507246376812
aF0.9130434782608695
aF0.927536231884058
aF0.2753623188405797
aF0.0
aF0.5217391304347826
aF0.9130434782608695
aF0.9130434782608695
aF0.8985507246376812
aF0.9130434782608695
aF0.8985507246376812
aF0.8985507246376812
aF0.8985507246376812
aF0.0
aF0.9130434782608695
aF0.5072463768115942
aF0.13043478260869565
aF0.0
aF0.4782608695652174
aF0.5217391304347826
aF0.927536231884058
aF0.8985507246376812
aF0.927536231884058
aF0.9130434782608695
asg10
F0.653623188405797
ssg14
(dp99
g8
(lp100
F0.014492753623188406
aF0.07246376811594203
aF0.13043478260869565
aF0.14492753623188406
aF0.07246376811594203
aF0.2318840579710145
aF0.14492753623188406
aF0.15942028985507245
aF0.13043478260869565
aF0.17391304347826086
aF0.10144927536231885
aF0.10144927536231885
aF0.10144927536231885
aF0.13043478260869565
aF0.13043478260869565
aF0.17391304347826086
aF0.08695652173913043
aF0.18840579710144928
aF0.13043478260869565
aF0.15942028985507245
aF0.15942028985507245
aF0.11594202898550725
aF0.11594202898550725
aF0.11594202898550725
aF0.10144927536231885
aF0.13043478260869565
aF0.057971014492753624
aF0.057971014492753624
aF0.2463768115942029
aF0.10144927536231885
aF0.08695652173913043
aF0.10144927536231885
aF0.11594202898550725
aF0.14492753623188406
aF0.043478260869565216
aF0.057971014492753624
aF0.10144927536231885
aF0.13043478260869565
aF0.13043478260869565
aF0.15942028985507245
aF0.08695652173913043
aF0.10144927536231885
aF0.13043478260869565
aF0.13043478260869565
aF0.13043478260869565
aF0.14492753623188406
aF0.15942028985507245
aF0.15942028985507245
aF0.14492753623188406
aF0.14492753623188406
asg10
F0.12376811594202893
sssF0.06
(dp101
g6
(dp102
g8
(lp103
F0.9014084507042254
aF0.9154929577464789
aF0.39436619718309857
aF0.9014084507042254
aF0.9014084507042254
aF0.9154929577464789
aF0.9154929577464789
aF0.5211267605633803
aF0.4225352112676056
aF0.9014084507042254
aF0.9154929577464789
aF0.9014084507042254
aF0.9014084507042254
aF0.18309859154929578
aF0.4788732394366197
aF0.9014084507042254
aF0.9154929577464789
aF0.0
aF0.9014084507042254
aF0.9154929577464789
aF0.9014084507042254
aF0.9014084507042254
aF0.0
aF0.38028169014084506
aF0.9014084507042254
aF0.9154929577464789
aF0.9154929577464789
aF0.9014084507042254
aF0.9014084507042254
aF0.9014084507042254
aF0.9154929577464789
aF0.5492957746478874
aF0.9014084507042254
aF0.36619718309859156
aF0.0
aF0.9014084507042254
aF0.9014084507042254
aF0.9014084507042254
aF0.9014084507042254
aF0.9014084507042254
aF0.4225352112676056
aF0.9295774647887324
aF0.9154929577464789
aF0.9014084507042254
aF0.4225352112676056
aF0.9014084507042254
aF0.9014084507042254
aF0.9154929577464789
aF0.9014084507042254
aF0.9154929577464789
asg10
F0.7538028169014084
ssg11
(dp104
g8
(lp105
F0.29577464788732394
aF0.19718309859154928
aF0.28169014084507044
aF0.2676056338028169
aF0.28169014084507044
aF0.0
aF0.36619718309859156
aF0.2535211267605634
aF0.4084507042253521
aF0.8450704225352113
aF0.0
aF0.9014084507042254
aF0.0
aF0.14084507042253522
aF0.30985915492957744
aF0.9295774647887324
aF0.0
aF0.0
aF0.5070422535211268
aF0.0
aF0.9014084507042254
aF0.9014084507042254
aF0.0
aF0.28169014084507044
aF0.9014084507042254
aF0.0
aF0.9154929577464789
aF0.4788732394366197
aF0.5352112676056338
aF0.9014084507042254
aF0.9014084507042254
aF0.23943661971830985
aF0.0
aF0.36619718309859156
aF0.0
aF0.43661971830985913
aF0.0
aF0.19718309859154928
aF0.7887323943661971
aF0.9014084507042254
aF0.4647887323943662
aF0.2535211267605634
aF0.9154929577464789
aF0.9014084507042254
aF0.323943661971831
aF0.4788732394366197
aF0.4084507042253521
aF0.9154929577464789
aF0.5492957746478874
aF0.09859154929577464
asg10
F0.4188732394366199
ssg14
(dp106
g8
(lp107
F0.15492957746478872
aF0.18309859154929578
aF0.08450704225352113
aF0.14084507042253522
aF0.09859154929577464
aF0.08450704225352113
aF0.028169014084507043
aF0.1267605633802817
aF0.15492957746478872
aF0.08450704225352113
aF0.14084507042253522
aF0.09859154929577464
aF0.11267605633802817
aF0.09859154929577464
aF0.028169014084507043
aF0.1267605633802817
aF0.07042253521126761
aF0.1267605633802817
aF0.14084507042253522
aF0.09859154929577464
aF0.14084507042253522
aF0.15492957746478872
aF0.14084507042253522
aF0.08450704225352113
aF0.11267605633802817
aF0.15492957746478872
aF0.15492957746478872
aF0.028169014084507043
aF0.2112676056338028
aF0.1267605633802817
aF0.08450704225352113
aF0.08450704225352113
aF0.1267605633802817
aF0.1267605633802817
aF0.14084507042253522
aF0.16901408450704225
aF0.14084507042253522
aF0.09859154929577464
aF0.14084507042253522
aF0.18309859154929578
aF0.07042253521126761
aF0.1267605633802817
aF0.14084507042253522
aF0.04225352112676056
aF0.15492957746478872
aF0.1267605633802817
aF0.15492957746478872
aF0.23943661971830985
aF0.18309859154929578
aF0.11267605633802817
asg10
F0.1228169014084507
sssF0.16
(dp108
g6
(dp109
g8
(lp110
F0.8888888888888888
aF0.8888888888888888
aF0.8888888888888888
aF0.9365079365079365
aF0.8888888888888888
aF0.9206349206349206
aF0.9047619047619048
aF0.8888888888888888
aF0.9047619047619048
aF0.8888888888888888
aF0.8888888888888888
aF0.9047619047619048
aF0.9206349206349206
aF0.8888888888888888
aF0.9047619047619048
aF0.8888888888888888
aF0.8888888888888888
aF0.9047619047619048
aF0.9206349206349206
aF0.9206349206349206
aF0.8888888888888888
aF0.8888888888888888
aF0.9047619047619048
aF0.9365079365079365
aF0.9206349206349206
aF0.8888888888888888
aF0.9365079365079365
aF0.9206349206349206
aF0.8888888888888888
aF0.9523809523809523
aF0.9047619047619048
aF0.8888888888888888
aF0.9206349206349206
aF0.9047619047619048
aF0.8888888888888888
aF0.8888888888888888
aF0.9047619047619048
aF0.8888888888888888
aF0.8888888888888888
aF0.9206349206349206
aF0.8888888888888888
aF0.8888888888888888
aF0.9365079365079365
aF0.8888888888888888
aF0.9047619047619048
aF0.9047619047619048
aF0.9047619047619048
aF0.9047619047619048
aF0.9047619047619048
aF0.9206349206349206
asg10
F0.9041269841269839
ssg11
(dp111
g8
(lp112
F0.8888888888888888
aF0.8888888888888888
aF0.8888888888888888
aF0.9365079365079365
aF0.4603174603174603
aF0.9206349206349206
aF0.9047619047619048
aF0.8888888888888888
aF0.9047619047619048
aF0.5396825396825397
aF0.8888888888888888
aF0.5396825396825397
aF0.9206349206349206
aF0.8888888888888888
aF0.9047619047619048
aF0.8888888888888888
aF0.8888888888888888
aF0.9365079365079365
aF0.9206349206349206
aF0.9206349206349206
aF0.8888888888888888
aF0.8888888888888888
aF0.9047619047619048
aF0.9365079365079365
aF0.9365079365079365
aF0.8888888888888888
aF0.9365079365079365
aF0.9206349206349206
aF0.8888888888888888
aF0.1111111111111111
aF0.9206349206349206
aF0.20634920634920634
aF0.9206349206349206
aF0.9047619047619048
aF0.8888888888888888
aF0.9206349206349206
aF0.5238095238095238
aF0.8888888888888888
aF0.9206349206349206
aF0.9206349206349206
aF0.8888888888888888
aF0.8888888888888888
aF0.9365079365079365
aF0.8888888888888888
aF0.9047619047619048
aF0.2698412698412698
aF0.5555555555555556
aF0.9047619047619048
aF0.9047619047619048
aF0.9206349206349206
asg10
F0.8260317460317459
ssg14
(dp113
g8
(lp114
F0.1746031746031746
aF0.12698412698412698
aF0.19047619047619047
aF0.1746031746031746
aF0.15873015873015872
aF0.12698412698412698
aF0.1746031746031746
aF0.14285714285714285
aF0.23809523809523808
aF0.15873015873015872
aF0.1111111111111111
aF0.12698412698412698
aF0.20634920634920634
aF0.12698412698412698
aF0.12698412698412698
aF0.1111111111111111
aF0.19047619047619047
aF0.1746031746031746
aF0.1111111111111111
aF0.15873015873015872
aF0.14285714285714285
aF0.15873015873015872
aF0.1746031746031746
aF0.20634920634920634
aF0.14285714285714285
aF0.15873015873015872
aF0.15873015873015872
aF0.20634920634920634
aF0.1111111111111111
aF0.1111111111111111
aF0.15873015873015872
aF0.12698412698412698
aF0.19047619047619047
aF0.12698412698412698
aF0.1746031746031746
aF0.20634920634920634
aF0.23809523809523808
aF0.12698412698412698
aF0.1111111111111111
aF0.14285714285714285
aF0.09523809523809523
aF0.12698412698412698
aF0.1111111111111111
aF0.19047619047619047
aF0.2222222222222222
aF0.19047619047619047
aF0.2698412698412698
aF0.1746031746031746
aF0.12698412698412698
aF0.19047619047619047
asg10
F0.15968253968253973
sssF0.42
(dp115
g6
(dp116
g8
(lp117
F0.9318181818181818
aF0.9318181818181818
aF0.9318181818181818
aF0.8636363636363636
aF0.8863636363636364
aF0.9090909090909091
aF0.9545454545454546
aF0.9318181818181818
aF0.8863636363636364
aF0.9090909090909091
aF0.9318181818181818
aF0.8636363636363636
aF0.9090909090909091
aF0.8863636363636364
aF0.8636363636363636
aF0.9772727272727273
aF0.8863636363636364
aF0.9318181818181818
aF0.8863636363636364
aF0.8863636363636364
aF0.9090909090909091
aF0.9318181818181818
aF0.9318181818181818
aF0.9090909090909091
aF0.8636363636363636
aF0.8863636363636364
aF0.9318181818181818
aF0.9318181818181818
aF0.8863636363636364
aF0.9090909090909091
aF0.8863636363636364
aF0.8863636363636364
aF0.9090909090909091
aF0.8636363636363636
aF0.9318181818181818
aF0.9545454545454546
aF0.8409090909090909
aF0.9318181818181818
aF0.8863636363636364
aF0.9318181818181818
aF0.9318181818181818
aF0.9545454545454546
aF0.8863636363636364
aF0.8863636363636364
aF0.8863636363636364
aF0.9545454545454546
aF0.9090909090909091
aF0.9090909090909091
aF0.8636363636363636
aF0.9318181818181818
asg10
F0.9077272727272725
ssg11
(dp118
g8
(lp119
F0.9318181818181818
aF0.11363636363636363
aF0.9318181818181818
aF0.8636363636363636
aF0.9318181818181818
aF0.9090909090909091
aF0.9545454545454546
aF0.9318181818181818
aF0.8863636363636364
aF0.9090909090909091
aF0.9318181818181818
aF0.8636363636363636
aF0.9318181818181818
aF0.8863636363636364
aF0.8636363636363636
aF0.9772727272727273
aF0.8863636363636364
aF0.9318181818181818
aF0.8863636363636364
aF0.8863636363636364
aF0.9090909090909091
aF0.9318181818181818
aF0.9318181818181818
aF0.9090909090909091
aF0.8636363636363636
aF0.8863636363636364
aF0.9318181818181818
aF0.9318181818181818
aF0.8863636363636364
aF0.9090909090909091
aF0.8863636363636364
aF0.8863636363636364
aF0.9090909090909091
aF0.8636363636363636
aF0.9545454545454546
aF0.9772727272727273
aF0.8409090909090909
aF0.9318181818181818
aF0.8863636363636364
aF0.9318181818181818
aF0.9318181818181818
aF0.9545454545454546
aF0.8863636363636364
aF0.8863636363636364
aF0.8863636363636364
aF0.9545454545454546
aF0.9090909090909091
aF0.9090909090909091
aF0.8636363636363636
aF0.9318181818181818
asg10
F0.8936363636363633
ssg14
(dp120
g8
(lp121
F0.06818181818181818
aF0.022727272727272728
aF0.06818181818181818
aF0.25
aF0.1590909090909091
aF0.06818181818181818
aF0.25
aF0.09090909090909091
aF0.13636363636363635
aF0.2727272727272727
aF0.06818181818181818
aF0.3181818181818182
aF0.18181818181818182
aF0.20454545454545456
aF0.2727272727272727
aF0.2727272727272727
aF0.29545454545454547
aF0.20454545454545456
aF0.20454545454545456
aF0.2727272727272727
aF0.1590909090909091
aF0.22727272727272727
aF0.11363636363636363
aF0.13636363636363635
aF0.5227272727272727
aF0.09090909090909091
aF0.1590909090909091
aF0.4318181818181818
aF0.09090909090909091
aF0.13636363636363635
aF0.13636363636363635
aF0.20454545454545456
aF0.25
aF0.25
aF0.11363636363636363
aF0.06818181818181818
aF0.2727272727272727
aF0.18181818181818182
aF0.09090909090909091
aF0.18181818181818182
aF0.18181818181818182
aF0.20454545454545456
aF0.18181818181818182
aF0.1590909090909091
aF0.1590909090909091
aF0.18181818181818182
aF0.11363636363636363
aF0.36363636363636365
aF0.38636363636363635
aF0.29545454545454547
asg10
F0.19454545454545447
sssF0.44
(dp122
g6
(dp123
g8
(lp124
F0.8809523809523809
aF0.8809523809523809
aF0.9523809523809523
aF0.9285714285714286
aF0.9047619047619048
aF0.9523809523809523
aF0.8809523809523809
aF0.8809523809523809
aF0.9047619047619048
aF0.8571428571428571
aF0.9523809523809523
aF0.9285714285714286
aF0.9523809523809523
aF0.9285714285714286
aF0.8809523809523809
aF0.9285714285714286
aF0.9523809523809523
aF0.9047619047619048
aF0.8809523809523809
aF0.9523809523809523
aF0.9285714285714286
aF0.8333333333333334
aF0.8809523809523809
aF0.9285714285714286
aF0.8571428571428571
aF0.9047619047619048
aF0.9047619047619048
aF0.9047619047619048
aF0.8809523809523809
aF0.8809523809523809
aF0.9285714285714286
aF0.8809523809523809
aF0.8809523809523809
aF0.8809523809523809
aF0.8571428571428571
aF0.9761904761904762
aF0.8809523809523809
aF0.9285714285714286
aF0.9285714285714286
aF0.9285714285714286
aF0.9523809523809523
aF0.9047619047619048
aF0.9285714285714286
aF0.9523809523809523
aF0.9047619047619048
aF0.9285714285714286
aF0.9285714285714286
aF0.8333333333333334
aF0.9761904761904762
aF0.8571428571428571
asg10
F0.9085714285714285
ssg11
(dp125
g8
(lp126
F0.8809523809523809
aF0.8809523809523809
aF0.9523809523809523
aF0.9285714285714286
aF0.9047619047619048
aF0.9523809523809523
aF0.8809523809523809
aF0.8809523809523809
aF0.9047619047619048
aF0.8571428571428571
aF0.9523809523809523
aF0.9285714285714286
aF0.9523809523809523
aF0.9285714285714286
aF0.8809523809523809
aF0.9285714285714286
aF0.9523809523809523
aF0.9047619047619048
aF0.8809523809523809
aF0.9523809523809523
aF0.9285714285714286
aF0.8333333333333334
aF0.8809523809523809
aF0.9285714285714286
aF0.8571428571428571
aF0.9047619047619048
aF0.9047619047619048
aF0.9047619047619048
aF0.6190476190476191
aF0.8809523809523809
aF0.9523809523809523
aF0.8809523809523809
aF0.8809523809523809
aF0.8809523809523809
aF0.8571428571428571
aF0.9761904761904762
aF0.8809523809523809
aF0.9285714285714286
aF0.9285714285714286
aF0.9285714285714286
aF0.9761904761904762
aF0.9047619047619048
aF0.9523809523809523
aF0.9523809523809523
aF0.9047619047619048
aF0.9285714285714286
aF0.9285714285714286
aF0.8333333333333334
aF0.9761904761904762
aF0.8571428571428571
asg10
F0.9047619047619047
ssg14
(dp127
g8
(lp128
F0.7380952380952381
aF0.2619047619047619
aF0.0
aF0.11904761904761904
aF0.2619047619047619
aF0.38095238095238093
aF0.23809523809523808
aF0.5238095238095238
aF0.2857142857142857
aF0.14285714285714285
aF0.3333333333333333
aF0.14285714285714285
aF0.2857142857142857
aF0.16666666666666666
aF0.21428571428571427
aF0.35714285714285715
aF0.14285714285714285
aF0.047619047619047616
aF0.47619047619047616
aF0.07142857142857142
aF0.23809523809523808
aF0.3333333333333333
aF0.0
aF0.3333333333333333
aF0.5714285714285714
aF0.0
aF0.5
aF0.3333333333333333
aF0.21428571428571427
aF0.5238095238095238
aF0.2857142857142857
aF0.38095238095238093
aF0.07142857142857142
aF0.4523809523809524
aF0.21428571428571427
aF0.40476190476190477
aF0.47619047619047616
aF0.2619047619047619
aF0.5714285714285714
aF0.21428571428571427
aF0.2619047619047619
aF0.0
aF0.19047619047619047
aF0.21428571428571427
aF0.047619047619047616
aF0.09523809523809523
aF0.23809523809523808
aF0.8333333333333334
aF0.21428571428571427
aF0.11904761904761904
asg10
F0.27571428571428563
sssF0.18
(dp129
g6
(dp130
g8
(lp131
F0.5645161290322581
aF0.9193548387096774
aF0.9193548387096774
aF0.9193548387096774
aF0.9193548387096774
aF0.9032258064516129
aF0.9354838709677419
aF0.8870967741935484
aF0.9354838709677419
aF0.8870967741935484
aF0.9193548387096774
aF0.9354838709677419
aF0.9032258064516129
aF0.5161290322580645
aF0.9354838709677419
aF0.9032258064516129
aF0.9032258064516129
aF0.9193548387096774
aF0.9032258064516129
aF0.9032258064516129
aF0.9032258064516129
aF0.9193548387096774
aF0.9032258064516129
aF0.8870967741935484
aF0.9354838709677419
aF0.9193548387096774
aF0.8870967741935484
aF0.9516129032258065
aF0.8870967741935484
aF0.8870967741935484
aF0.9032258064516129
aF0.9032258064516129
aF0.9032258064516129
aF0.9032258064516129
aF0.8870967741935484
aF0.9354838709677419
aF0.8870967741935484
aF0.9032258064516129
aF0.9032258064516129
aF0.9032258064516129
aF0.9193548387096774
aF0.9032258064516129
aF0.8870967741935484
aF0.9193548387096774
aF0.9032258064516129
aF0.9032258064516129
aF0.9032258064516129
aF0.9354838709677419
aF0.9193548387096774
aF0.8870967741935484
asg10
F0.8945161290322586
ssg11
(dp132
g8
(lp133
F0.5161290322580645
aF0.9193548387096774
aF0.9193548387096774
aF0.9193548387096774
aF0.9193548387096774
aF0.9032258064516129
aF0.9354838709677419
aF0.8870967741935484
aF0.9516129032258065
aF0.8870967741935484
aF0.5161290322580645
aF0.9354838709677419
aF0.9032258064516129
aF0.4032258064516129
aF0.3064516129032258
aF0.9354838709677419
aF0.9032258064516129
aF0.9193548387096774
aF0.9032258064516129
aF0.9032258064516129
aF0.9193548387096774
aF0.45161290322580644
aF0.9032258064516129
aF0.8870967741935484
aF0.5645161290322581
aF0.9193548387096774
aF0.8870967741935484
aF0.967741935483871
aF0.8870967741935484
aF0.8870967741935484
aF0.9032258064516129
aF0.9032258064516129
aF0.9032258064516129
aF0.9193548387096774
aF0.8870967741935484
aF0.9354838709677419
aF0.8870967741935484
aF0.9032258064516129
aF0.5483870967741935
aF0.9032258064516129
aF0.9354838709677419
aF0.22580645161290322
aF0.3870967741935484
aF0.9516129032258065
aF0.9032258064516129
aF0.9032258064516129
aF0.9032258064516129
aF0.9354838709677419
aF0.9193548387096774
aF0.8870967741935484
asg10
F0.8261290322580648
ssg14
(dp134
g8
(lp135
F0.11290322580645161
aF0.12903225806451613
aF0.12903225806451613
aF0.16129032258064516
aF0.16129032258064516
aF0.1935483870967742
aF0.1935483870967742
aF0.14516129032258066
aF0.08064516129032258
aF0.1935483870967742
aF0.14516129032258066
aF0.14516129032258066
aF0.20967741935483872
aF0.22580645161290322
aF0.11290322580645161
aF0.22580645161290322
aF0.20967741935483872
aF0.1774193548387097
aF0.1935483870967742
aF0.16129032258064516
aF0.20967741935483872
aF0.20967741935483872
aF0.06451612903225806
aF0.22580645161290322
aF0.2903225806451613
aF0.16129032258064516
aF0.25806451612903225
aF0.3225806451612903
aF0.1935483870967742
aF0.16129032258064516
aF0.22580645161290322
aF0.20967741935483872
aF0.16129032258064516
aF0.2903225806451613
aF0.1774193548387097
aF0.24193548387096775
aF0.22580645161290322
aF0.08064516129032258
aF0.22580645161290322
aF0.1774193548387097
aF0.22580645161290322
aF0.14516129032258066
aF0.12903225806451613
aF0.27419354838709675
aF0.1774193548387097
aF0.20967741935483872
aF0.0967741935483871
aF0.12903225806451613
aF0.14516129032258066
aF0.1774193548387097
asg10
F0.18258064516129027
sssF0.66
(dp136
g6
(dp137
g8
(lp138
F0.8846153846153846
aF0.9615384615384616
aF0.9615384615384616
aF0.9230769230769231
aF0.9230769230769231
aF0.8461538461538461
aF0.9230769230769231
aF0.8461538461538461
aF0.8846153846153846
aF0.8461538461538461
aF0.9230769230769231
aF0.9230769230769231
aF1.0
aF0.9230769230769231
aF0.9230769230769231
aF0.9230769230769231
aF0.8846153846153846
aF0.8846153846153846
aF0.8461538461538461
aF0.8846153846153846
aF0.9615384615384616
aF0.9230769230769231
aF0.8846153846153846
aF0.8461538461538461
aF1.0
aF0.8076923076923077
aF0.8846153846153846
aF0.8846153846153846
aF0.8846153846153846
aF0.9230769230769231
aF0.9230769230769231
aF0.9615384615384616
aF0.9615384615384616
aF0.9615384615384616
aF0.9230769230769231
aF0.9615384615384616
aF0.8846153846153846
aF0.9230769230769231
aF0.9230769230769231
aF0.9615384615384616
aF0.9230769230769231
aF0.9615384615384616
aF0.9615384615384616
aF0.8846153846153846
aF0.8846153846153846
aF0.9615384615384616
aF0.9230769230769231
aF0.9230769230769231
aF0.9615384615384616
aF0.8846153846153846
asg10
F0.9153846153846149
ssg11
(dp139
g8
(lp140
F0.8846153846153846
aF0.9615384615384616
aF0.9615384615384616
aF0.9230769230769231
aF0.9230769230769231
aF0.8461538461538461
aF0.9230769230769231
aF0.8461538461538461
aF0.8846153846153846
aF0.8461538461538461
aF0.9230769230769231
aF0.9230769230769231
aF1.0
aF0.9230769230769231
aF0.9230769230769231
aF0.9230769230769231
aF0.8846153846153846
aF0.8846153846153846
aF0.8461538461538461
aF0.8846153846153846
aF0.9615384615384616
aF0.9230769230769231
aF0.8846153846153846
aF0.8461538461538461
aF1.0
aF0.8076923076923077
aF0.8846153846153846
aF0.8846153846153846
aF0.8846153846153846
aF0.9230769230769231
aF0.9230769230769231
aF0.9615384615384616
aF0.9615384615384616
aF0.9615384615384616
aF0.9230769230769231
aF0.9615384615384616
aF0.8846153846153846
aF0.9230769230769231
aF0.9230769230769231
aF0.9615384615384616
aF0.9230769230769231
aF0.9615384615384616
aF0.9615384615384616
aF0.8846153846153846
aF0.8846153846153846
aF0.9615384615384616
aF0.9230769230769231
aF0.9230769230769231
aF0.9615384615384616
aF0.8846153846153846
asg10
F0.9153846153846149
ssg14
(dp141
g8
(lp142
F0.8846153846153846
aF0.9615384615384616
aF0.9615384615384616
aF0.38461538461538464
aF0.9230769230769231
aF0.8461538461538461
aF0.9230769230769231
aF0.8461538461538461
aF0.8846153846153846
aF0.8846153846153846
aF0.9230769230769231
aF0.46153846153846156
aF1.0
aF0.46153846153846156
aF0.9230769230769231
aF0.9615384615384616
aF0.4230769230769231
aF0.8846153846153846
aF0.8461538461538461
aF0.8846153846153846
aF0.9615384615384616
aF0.9230769230769231
aF0.8846153846153846
aF0.8461538461538461
aF1.0
aF0.8076923076923077
aF0.8846153846153846
aF0.8846153846153846
aF0.8846153846153846
aF0.9615384615384616
aF0.9230769230769231
aF0.0
aF0.9615384615384616
aF0.9615384615384616
aF0.9230769230769231
aF0.9615384615384616
aF0.8846153846153846
aF0.9230769230769231
aF0.9230769230769231
aF0.9615384615384616
aF0.9230769230769231
aF0.9615384615384616
aF0.9615384615384616
aF0.34615384615384615
aF0.8846153846153846
aF0.9615384615384616
aF0.9230769230769231
aF0.9230769230769231
aF0.9615384615384616
aF0.38461538461538464
asg10
F0.8392307692307687
sssF0.6
(dp143
g6
(dp144
g8
(lp145
F0.9333333333333333
aF0.9
aF0.9
aF0.9
aF0.9
aF0.8666666666666667
aF0.8666666666666667
aF0.9666666666666667
aF0.9
aF0.8333333333333334
aF0.9
aF0.9
aF0.8666666666666667
aF0.9
aF0.8666666666666667
aF0.8
aF0.9333333333333333
aF0.9
aF0.9666666666666667
aF0.9333333333333333
aF0.9666666666666667
aF0.9666666666666667
aF0.9666666666666667
aF0.9666666666666667
aF0.9666666666666667
aF0.9
aF0.8666666666666667
aF0.9333333333333333
aF0.8666666666666667
aF0.9333333333333333
aF0.9333333333333333
aF0.9
aF0.9666666666666667
aF0.8666666666666667
aF0.9
aF1.0
aF0.9333333333333333
aF0.9
aF0.9333333333333333
aF0.9
aF0.8666666666666667
aF0.9333333333333333
aF0.8666666666666667
aF0.9333333333333333
aF0.8666666666666667
aF0.9
aF0.9333333333333333
aF0.9333333333333333
aF0.9666666666666667
aF0.9333333333333333
asg10
F0.9126666666666661
ssg11
(dp146
g8
(lp147
F0.9333333333333333
aF0.9
aF0.9
aF0.9
aF0.9
aF0.8666666666666667
aF0.8666666666666667
aF0.9666666666666667
aF0.9
aF0.8333333333333334
aF0.9
aF0.9
aF0.8666666666666667
aF0.9
aF0.8666666666666667
aF0.8
aF0.9333333333333333
aF0.9
aF0.9666666666666667
aF0.9333333333333333
aF0.9666666666666667
aF0.9666666666666667
aF0.9666666666666667
aF0.9666666666666667
aF0.9666666666666667
aF0.9
aF0.8666666666666667
aF0.9333333333333333
aF0.8666666666666667
aF0.9333333333333333
aF0.9333333333333333
aF0.9
aF0.9666666666666667
aF0.8666666666666667
aF0.9
aF1.0
aF0.9333333333333333
aF0.9
aF0.9333333333333333
aF0.9
aF0.8666666666666667
aF0.9333333333333333
aF0.8666666666666667
aF0.9333333333333333
aF0.8666666666666667
aF0.9
aF0.9333333333333333
aF0.9333333333333333
aF0.9666666666666667
aF0.9333333333333333
asg10
F0.9126666666666661
ssg14
(dp148
g8
(lp149
F0.9333333333333333
aF0.16666666666666666
aF0.9
aF0.9
aF0.9
aF0.4
aF0.26666666666666666
aF0.9666666666666667
aF0.43333333333333335
aF0.8333333333333334
aF0.9
aF0.9
aF0.8666666666666667
aF0.5
aF0.9
aF0.8
aF0.9333333333333333
aF0.9
aF0.9666666666666667
aF0.9333333333333333
aF0.5666666666666667
aF0.9666666666666667
aF0.9666666666666667
aF0.9666666666666667
aF0.6666666666666666
aF0.9
aF0.8666666666666667
aF0.4666666666666667
aF0.8666666666666667
aF0.9333333333333333
aF0.9333333333333333
aF0.9
aF0.9666666666666667
aF0.4
aF0.9
aF1.0
aF0.9333333333333333
aF0.9666666666666667
aF0.43333333333333335
aF0.9333333333333333
aF0.8666666666666667
aF0.9333333333333333
aF0.3333333333333333
aF0.9333333333333333
aF0.8666666666666667
aF0.9
aF0.9333333333333333
aF0.36666666666666664
aF0.4
aF0.9333333333333333
asg10
F0.7859999999999995
sssF0.3
(dp150
g6
(dp151
g8
(lp152
F0.8867924528301887
aF0.8679245283018868
aF0.9056603773584906
aF0.8867924528301887
aF0.9245283018867925
aF0.9056603773584906
aF0.9245283018867925
aF0.8867924528301887
aF0.9056603773584906
aF0.9056603773584906
aF0.9056603773584906
aF0.8679245283018868
aF0.8867924528301887
aF0.9245283018867925
aF0.9433962264150944
aF0.8867924528301887
aF0.9433962264150944
aF0.8867924528301887
aF0.9056603773584906
aF0.8679245283018868
aF0.8867924528301887
aF0.9056603773584906
aF0.8679245283018868
aF0.9056603773584906
aF0.8679245283018868
aF0.9433962264150944
aF0.8867924528301887
aF0.9245283018867925
aF0.9056603773584906
aF0.8867924528301887
aF0.9056603773584906
aF0.9433962264150944
aF0.8867924528301887
aF0.8867924528301887
aF0.8867924528301887
aF0.9056603773584906
aF0.8867924528301887
aF0.8867924528301887
aF0.9433962264150944
aF0.8679245283018868
aF0.9622641509433962
aF0.9056603773584906
aF0.8679245283018868
aF0.8867924528301887
aF0.9245283018867925
aF0.8679245283018868
aF0.9056603773584906
aF0.8867924528301887
aF0.9056603773584906
aF0.8679245283018868
asg10
F0.8996226415094339
ssg11
(dp153
g8
(lp154
F0.8867924528301887
aF0.8679245283018868
aF0.9056603773584906
aF0.8867924528301887
aF0.9433962264150944
aF0.9056603773584906
aF0.9245283018867925
aF0.8867924528301887
aF0.9056603773584906
aF0.9056603773584906
aF0.9056603773584906
aF0.8679245283018868
aF0.8867924528301887
aF0.9245283018867925
aF0.9433962264150944
aF0.8867924528301887
aF0.9433962264150944
aF0.8867924528301887
aF0.9056603773584906
aF0.8679245283018868
aF0.8867924528301887
aF0.9056603773584906
aF0.8679245283018868
aF0.9056603773584906
aF0.8679245283018868
aF0.9433962264150944
aF0.8867924528301887
aF0.9245283018867925
aF0.9056603773584906
aF0.8867924528301887
aF0.9056603773584906
aF0.9433962264150944
aF0.8867924528301887
aF0.8867924528301887
aF0.8867924528301887
aF0.9056603773584906
aF0.8867924528301887
aF0.8867924528301887
aF0.9433962264150944
aF0.8679245283018868
aF0.9622641509433962
aF0.9056603773584906
aF0.49056603773584906
aF0.5283018867924528
aF0.5094339622641509
aF0.8679245283018868
aF0.9056603773584906
aF0.8867924528301887
aF0.9056603773584906
aF0.8679245283018868
asg10
F0.8769811320754718
ssg14
(dp155
g8
(lp156
F0.05660377358490566
aF0.1509433962264151
aF0.22641509433962265
aF0.22641509433962265
aF0.16981132075471697
aF0.1320754716981132
aF0.24528301886792453
aF0.24528301886792453
aF0.20754716981132076
aF0.18867924528301888
aF0.22641509433962265
aF0.24528301886792453
aF0.1320754716981132
aF0.1509433962264151
aF0.2641509433962264
aF0.33962264150943394
aF0.2830188679245283
aF0.16981132075471697
aF0.3018867924528302
aF0.18867924528301888
aF0.0
aF0.1509433962264151
aF0.1509433962264151
aF0.20754716981132076
aF0.22641509433962265
aF0.33962264150943394
aF0.3018867924528302
aF0.24528301886792453
aF0.2641509433962264
aF0.2641509433962264
aF0.1320754716981132
aF0.2641509433962264
aF0.32075471698113206
aF0.16981132075471697
aF0.1320754716981132
aF0.32075471698113206
aF0.11320754716981132
aF0.33962264150943394
aF0.09433962264150944
aF0.24528301886792453
aF0.32075471698113206
aF0.2830188679245283
aF0.20754716981132076
aF0.2830188679245283
aF0.3018867924528302
aF0.1509433962264151
aF0.2641509433962264
aF0.11320754716981132
aF0.24528301886792453
aF0.22641509433962265
asg10
F0.2166037735849057
sssF0.4
(dp157
g6
(dp158
g8
(lp159
F0.9555555555555556
aF0.8888888888888888
aF0.9333333333333333
aF0.9333333333333333
aF0.8888888888888888
aF0.9333333333333333
aF0.8888888888888888
aF0.9333333333333333
aF0.8888888888888888
aF0.9333333333333333
aF0.9111111111111111
aF0.8888888888888888
aF0.9555555555555556
aF0.9111111111111111
aF0.9555555555555556
aF0.9111111111111111
aF0.8888888888888888
aF0.9111111111111111
aF0.8888888888888888
aF0.9333333333333333
aF0.9333333333333333
aF0.9555555555555556
aF0.8666666666666667
aF0.9111111111111111
aF0.8888888888888888
aF0.9111111111111111
aF0.8888888888888888
aF0.9555555555555556
aF0.9333333333333333
aF0.8888888888888888
aF0.8666666666666667
aF0.9111111111111111
aF0.9111111111111111
aF0.8888888888888888
aF0.9333333333333333
aF0.8888888888888888
aF0.8888888888888888
aF0.9111111111111111
aF0.8666666666666667
aF0.9777777777777777
aF0.9333333333333333
aF0.8888888888888888
aF0.8888888888888888
aF0.9333333333333333
aF0.8888888888888888
aF0.8888888888888888
aF0.9333333333333333
aF0.9333333333333333
aF0.9555555555555556
aF0.9333333333333333
asg10
F0.9137777777777772
ssg11
(dp160
g8
(lp161
F0.9555555555555556
aF0.8888888888888888
aF0.9333333333333333
aF0.9333333333333333
aF0.9333333333333333
aF0.9333333333333333
aF0.8888888888888888
aF0.9333333333333333
aF0.8888888888888888
aF0.9333333333333333
aF0.9111111111111111
aF0.8888888888888888
aF0.9555555555555556
aF0.9111111111111111
aF0.9555555555555556
aF0.9111111111111111
aF0.8888888888888888
aF0.9111111111111111
aF0.8888888888888888
aF0.9333333333333333
aF0.9333333333333333
aF0.9555555555555556
aF0.8666666666666667
aF0.9111111111111111
aF0.8888888888888888
aF0.9111111111111111
aF0.8888888888888888
aF0.9555555555555556
aF0.9333333333333333
aF0.8888888888888888
aF0.4444444444444444
aF0.9111111111111111
aF0.4888888888888889
aF0.9111111111111111
aF0.9555555555555556
aF0.8888888888888888
aF0.9111111111111111
aF0.9111111111111111
aF0.8666666666666667
aF0.9777777777777777
aF0.9333333333333333
aF0.8888888888888888
aF0.8888888888888888
aF0.9333333333333333
aF0.8888888888888888
aF0.8888888888888888
aF0.9333333333333333
aF0.9333333333333333
aF0.9555555555555556
aF0.9333333333333333
asg10
F0.8991111111111105
ssg14
(dp162
g8
(lp163
F0.0
aF0.26666666666666666
aF0.24444444444444444
aF0.2222222222222222
aF0.4444444444444444
aF0.24444444444444444
aF0.13333333333333333
aF0.2
aF0.08888888888888889
aF0.13333333333333333
aF0.2222222222222222
aF0.08888888888888889
aF0.2222222222222222
aF0.13333333333333333
aF0.2
aF0.15555555555555556
aF0.35555555555555557
aF0.5333333333333333
aF0.2
aF0.06666666666666667
aF0.28888888888888886
aF0.2
aF0.24444444444444444
aF0.35555555555555557
aF0.5333333333333333
aF0.24444444444444444
aF0.2222222222222222
aF0.26666666666666666
aF0.08888888888888889
aF0.13333333333333333
aF0.17777777777777778
aF0.15555555555555556
aF0.2222222222222222
aF0.1111111111111111
aF0.13333333333333333
aF0.4
aF0.13333333333333333
aF0.08888888888888889
aF0.4
aF0.3111111111111111
aF0.13333333333333333
aF0.06666666666666667
aF0.044444444444444446
aF0.26666666666666666
aF0.0
aF0.2
aF0.15555555555555556
aF0.13333333333333333
aF0.28888888888888886
aF0.4888888888888889
asg10
F0.21288888888888888
sssF0.48
(dp164
g6
(dp165
g8
(lp166
F0.8974358974358975
aF0.9230769230769231
aF0.9230769230769231
aF0.8461538461538461
aF0.9487179487179487
aF0.8974358974358975
aF0.9230769230769231
aF0.8974358974358975
aF0.8974358974358975
aF0.9230769230769231
aF0.9487179487179487
aF0.9230769230769231
aF0.8974358974358975
aF0.9487179487179487
aF0.8974358974358975
aF0.9230769230769231
aF0.8974358974358975
aF0.8461538461538461
aF0.9230769230769231
aF0.9230769230769231
aF0.9487179487179487
aF0.8461538461538461
aF0.9230769230769231
aF0.8974358974358975
aF0.8717948717948718
aF0.8461538461538461
aF0.8974358974358975
aF0.8974358974358975
aF0.9230769230769231
aF0.8717948717948718
aF0.8974358974358975
aF0.8974358974358975
aF0.9487179487179487
aF0.8717948717948718
aF0.8974358974358975
aF0.8974358974358975
aF0.9487179487179487
aF0.8717948717948718
aF0.9230769230769231
aF0.8461538461538461
aF0.8974358974358975
aF0.8717948717948718
aF0.8974358974358975
aF0.9230769230769231
aF0.8974358974358975
aF0.8717948717948718
aF0.8974358974358975
aF0.8974358974358975
aF0.8717948717948718
aF0.8717948717948718
asg10
F0.9005128205128203
ssg11
(dp167
g8
(lp168
F0.8974358974358975
aF0.9230769230769231
aF0.9230769230769231
aF0.8461538461538461
aF0.9487179487179487
aF0.8974358974358975
aF0.9230769230769231
aF0.8974358974358975
aF0.8974358974358975
aF0.9230769230769231
aF0.9487179487179487
aF0.9230769230769231
aF0.8974358974358975
aF0.9487179487179487
aF0.8974358974358975
aF0.9230769230769231
aF0.8974358974358975
aF0.8461538461538461
aF0.9230769230769231
aF0.9230769230769231
aF0.9487179487179487
aF0.8461538461538461
aF0.9230769230769231
aF0.8974358974358975
aF0.8717948717948718
aF0.8461538461538461
aF0.8974358974358975
aF0.8974358974358975
aF0.9230769230769231
aF0.8717948717948718
aF0.8974358974358975
aF0.8974358974358975
aF0.9487179487179487
aF0.8717948717948718
aF0.8974358974358975
aF0.8974358974358975
aF0.9487179487179487
aF0.8717948717948718
aF0.9230769230769231
aF0.8461538461538461
aF0.8974358974358975
aF0.8974358974358975
aF0.5128205128205128
aF0.9230769230769231
aF0.8974358974358975
aF0.8717948717948718
aF0.8974358974358975
aF0.8974358974358975
aF0.8717948717948718
aF0.8717948717948718
asg10
F0.8933333333333331
ssg14
(dp169
g8
(lp170
F0.9487179487179487
aF0.20512820512820512
aF0.41025641025641024
aF0.4358974358974359
aF0.23076923076923078
aF0.15384615384615385
aF0.2564102564102564
aF0.3076923076923077
aF0.6666666666666666
aF0.46153846153846156
aF0.6153846153846154
aF0.3076923076923077
aF0.358974358974359
aF0.0
aF0.0
aF0.2564102564102564
aF0.3076923076923077
aF0.38461538461538464
aF0.5128205128205128
aF0.28205128205128205
aF0.3076923076923077
aF0.8461538461538461
aF0.5641025641025641
aF0.8974358974358975
aF0.15384615384615385
aF0.1794871794871795
aF0.5128205128205128
aF0.28205128205128205
aF0.20512820512820512
aF0.8717948717948718
aF0.5384615384615384
aF0.8205128205128205
aF0.4358974358974359
aF0.5384615384615384
aF0.46153846153846156
aF0.8974358974358975
aF0.2564102564102564
aF0.0
aF0.41025641025641024
aF0.46153846153846156
aF0.0
aF0.38461538461538464
aF0.48717948717948717
aF0.10256410256410256
aF0.8974358974358975
aF0.41025641025641024
aF0.3076923076923077
aF0.20512820512820512
aF0.4358974358974359
aF0.46153846153846156
asg10
F0.4087179487179485
sssF0.64
(dp171
g6
(dp172
g8
(lp173
F0.8148148148148148
aF0.8888888888888888
aF0.9259259259259259
aF0.9259259259259259
aF0.9259259259259259
aF0.8148148148148148
aF0.8888888888888888
aF0.8888888888888888
aF0.8888888888888888
aF0.8888888888888888
aF0.8518518518518519
aF0.8888888888888888
aF0.9259259259259259
aF0.8518518518518519
aF0.9629629629629629
aF0.9259259259259259
aF0.8888888888888888
aF0.9259259259259259
aF0.9629629629629629
aF0.9629629629629629
aF0.9259259259259259
aF0.8518518518518519
aF0.9259259259259259
aF0.9259259259259259
aF0.9629629629629629
aF0.9259259259259259
aF0.8888888888888888
aF0.9629629629629629
aF0.9259259259259259
aF0.8518518518518519
aF0.9259259259259259
aF0.9259259259259259
aF0.9259259259259259
aF0.8518518518518519
aF0.8888888888888888
aF0.9259259259259259
aF0.8148148148148148
aF0.9259259259259259
aF0.7777777777777778
aF0.8888888888888888
aF0.9629629629629629
aF0.9259259259259259
aF0.9259259259259259
aF0.9259259259259259
aF0.8888888888888888
aF0.8888888888888888
aF0.9259259259259259
aF1.0
aF0.9259259259259259
aF0.8518518518518519
asg10
F0.9044444444444443
ssg11
(dp174
g8
(lp175
F0.8148148148148148
aF0.8888888888888888
aF0.9259259259259259
aF0.9259259259259259
aF0.9259259259259259
aF0.8148148148148148
aF0.8888888888888888
aF0.8888888888888888
aF0.8888888888888888
aF0.8888888888888888
aF0.8518518518518519
aF0.8888888888888888
aF0.9259259259259259
aF0.8518518518518519
aF0.9629629629629629
aF0.9259259259259259
aF0.8888888888888888
aF0.9259259259259259
aF0.9629629629629629
aF0.9629629629629629
aF0.9259259259259259
aF0.8518518518518519
aF0.9259259259259259
aF0.9259259259259259
aF0.9629629629629629
aF0.9259259259259259
aF0.8888888888888888
aF0.9629629629629629
aF0.9259259259259259
aF0.8518518518518519
aF0.9259259259259259
aF0.9259259259259259
aF0.9259259259259259
aF0.8518518518518519
aF0.8888888888888888
aF0.9259259259259259
aF0.8148148148148148
aF0.9259259259259259
aF0.7777777777777778
aF0.8888888888888888
aF0.9629629629629629
aF0.9259259259259259
aF0.9259259259259259
aF0.9259259259259259
aF0.8888888888888888
aF0.8888888888888888
aF0.9259259259259259
aF1.0
aF0.9259259259259259
aF0.8518518518518519
asg10
F0.9044444444444443
ssg14
(dp176
g8
(lp177
F0.8148148148148148
aF0.8888888888888888
aF0.9259259259259259
aF0.37037037037037035
aF0.9259259259259259
aF0.8148148148148148
aF0.8888888888888888
aF0.8888888888888888
aF0.8888888888888888
aF0.9629629629629629
aF0.8518518518518519
aF0.9259259259259259
aF0.9259259259259259
aF0.8518518518518519
aF0.9629629629629629
aF0.9259259259259259
aF0.8888888888888888
aF0.9259259259259259
aF0.9629629629629629
aF0.9629629629629629
aF0.9629629629629629
aF0.8518518518518519
aF0.9259259259259259
aF0.9259259259259259
aF0.9629629629629629
aF0.4444444444444444
aF0.8888888888888888
aF0.9629629629629629
aF0.9259259259259259
aF0.8888888888888888
aF0.5185185185185185
aF0.9629629629629629
aF0.9259259259259259
aF0.8518518518518519
aF0.8888888888888888
aF0.9629629629629629
aF0.8148148148148148
aF0.9259259259259259
aF0.7777777777777778
aF0.37037037037037035
aF0.9629629629629629
aF0.9259259259259259
aF0.9259259259259259
aF0.9259259259259259
aF0.8888888888888888
aF0.9259259259259259
aF0.9259259259259259
aF1.0
aF0.9259259259259259
aF0.8518518518518519
asg10
F0.8711111111111108
sssF0.46
(dp178
g6
(dp179
g8
(lp180
F0.926829268292683
aF0.9024390243902439
aF0.926829268292683
aF0.9024390243902439
aF0.926829268292683
aF0.9024390243902439
aF0.8780487804878049
aF0.9024390243902439
aF0.9024390243902439
aF0.9512195121951219
aF0.9024390243902439
aF0.8780487804878049
aF0.9512195121951219
aF0.9512195121951219
aF0.926829268292683
aF0.9024390243902439
aF0.9024390243902439
aF0.8536585365853658
aF0.8780487804878049
aF0.8780487804878049
aF0.9024390243902439
aF0.926829268292683
aF0.9024390243902439
aF0.926829268292683
aF0.9024390243902439
aF0.926829268292683
aF0.926829268292683
aF0.8292682926829268
aF0.8536585365853658
aF0.9512195121951219
aF0.9512195121951219
aF0.8780487804878049
aF0.8780487804878049
aF0.9512195121951219
aF0.926829268292683
aF0.926829268292683
aF0.9024390243902439
aF0.926829268292683
aF0.926829268292683
aF0.975609756097561
aF0.9024390243902439
aF0.8780487804878049
aF0.8536585365853658
aF0.9024390243902439
aF0.926829268292683
aF0.926829268292683
aF0.8780487804878049
aF0.8780487804878049
aF0.8780487804878049
aF0.9024390243902439
asg10
F0.9073170731707321
ssg11
(dp181
g8
(lp182
F0.926829268292683
aF0.9024390243902439
aF0.926829268292683
aF0.9024390243902439
aF0.926829268292683
aF0.9024390243902439
aF0.8780487804878049
aF0.9024390243902439
aF0.9024390243902439
aF0.9512195121951219
aF0.9024390243902439
aF0.8780487804878049
aF0.9512195121951219
aF0.9512195121951219
aF0.926829268292683
aF0.9024390243902439
aF0.9024390243902439
aF0.8536585365853658
aF0.8780487804878049
aF0.8780487804878049
aF0.9024390243902439
aF0.926829268292683
aF0.9024390243902439
aF0.926829268292683
aF0.9024390243902439
aF0.926829268292683
aF0.9512195121951219
aF0.8292682926829268
aF0.8536585365853658
aF0.9512195121951219
aF0.9512195121951219
aF0.8780487804878049
aF0.8780487804878049
aF0.975609756097561
aF0.926829268292683
aF0.926829268292683
aF0.9024390243902439
aF0.926829268292683
aF0.926829268292683
aF0.975609756097561
aF0.9024390243902439
aF0.8780487804878049
aF0.8536585365853658
aF0.9024390243902439
aF0.926829268292683
aF0.926829268292683
aF0.8780487804878049
aF0.8780487804878049
aF0.8780487804878049
aF0.9024390243902439
asg10
F0.9082926829268295
ssg14
(dp183
g8
(lp184
F0.0975609756097561
aF0.14634146341463414
aF0.17073170731707318
aF0.14634146341463414
aF0.3170731707317073
aF0.1951219512195122
aF0.2682926829268293
aF0.5121951219512195
aF0.5365853658536586
aF0.17073170731707318
aF0.07317073170731707
aF0.0
aF0.3902439024390244
aF0.43902439024390244
aF0.21951219512195122
aF0.5121951219512195
aF0.36585365853658536
aF0.7804878048780488
aF0.5365853658536586
aF0.1951219512195122
aF0.9024390243902439
aF0.0
aF0.5365853658536586
aF0.0
aF0.34146341463414637
aF0.34146341463414637
aF0.0975609756097561
aF0.34146341463414637
aF0.3902439024390244
aF0.17073170731707318
aF0.43902439024390244
aF0.14634146341463414
aF0.36585365853658536
aF0.21951219512195122
aF0.5121951219512195
aF0.0
aF0.4878048780487805
aF0.12195121951219512
aF0.0
aF0.07317073170731707
aF0.4634146341463415
aF0.4146341463414634
aF0.43902439024390244
aF0.4878048780487805
aF0.36585365853658536
aF0.3170731707317073
aF0.4634146341463415
aF0.0
aF0.43902439024390244
aF0.12195121951219512
asg10
F0.3014634146341463
sssF0.28
(dp185
g6
(dp186
g8
(lp187
F0.9259259259259259
aF0.8888888888888888
aF0.8703703703703703
aF0.8888888888888888
aF0.8888888888888888
aF0.8888888888888888
aF0.8888888888888888
aF0.9074074074074074
aF0.9259259259259259
aF0.9074074074074074
aF0.9259259259259259
aF0.9259259259259259
aF0.9259259259259259
aF0.8888888888888888
aF0.9444444444444444
aF0.9259259259259259
aF0.9074074074074074
aF0.8888888888888888
aF0.9074074074074074
aF0.8888888888888888
aF0.9074074074074074
aF0.9074074074074074
aF0.8888888888888888
aF0.8888888888888888
aF0.9074074074074074
aF0.9074074074074074
aF0.9444444444444444
aF0.9444444444444444
aF0.9259259259259259
aF0.8703703703703703
aF0.8888888888888888
aF0.9259259259259259
aF0.9074074074074074
aF0.9444444444444444
aF0.9074074074074074
aF0.8888888888888888
aF0.9259259259259259
aF0.9074074074074074
aF0.8888888888888888
aF0.9074074074074074
aF0.9259259259259259
aF0.9074074074074074
aF0.9074074074074074
aF0.9259259259259259
aF0.9259259259259259
aF0.9074074074074074
aF0.9074074074074074
aF0.9074074074074074
aF0.9444444444444444
aF0.8888888888888888
asg10
F0.9088888888888883
ssg11
(dp188
g8
(lp189
F0.9259259259259259
aF0.9074074074074074
aF0.8703703703703703
aF0.8888888888888888
aF0.8888888888888888
aF0.8888888888888888
aF0.8888888888888888
aF0.9074074074074074
aF0.5185185185185185
aF0.9074074074074074
aF0.9629629629629629
aF0.9259259259259259
aF0.9259259259259259
aF0.8888888888888888
aF0.9444444444444444
aF0.9259259259259259
aF0.9074074074074074
aF0.9074074074074074
aF0.5
aF0.8888888888888888
aF0.9444444444444444
aF0.9074074074074074
aF0.8888888888888888
aF0.8888888888888888
aF0.9074074074074074
aF0.9074074074074074
aF0.9444444444444444
aF0.9444444444444444
aF0.9259259259259259
aF0.8703703703703703
aF0.8888888888888888
aF0.9259259259259259
aF0.9074074074074074
aF0.5740740740740741
aF0.9074074074074074
aF0.8888888888888888
aF0.9259259259259259
aF0.9074074074074074
aF0.8888888888888888
aF0.9074074074074074
aF0.9259259259259259
aF0.9074074074074074
aF0.9074074074074074
aF0.9444444444444444
aF0.9259259259259259
aF0.9074074074074074
aF0.9074074074074074
aF0.9074074074074074
aF0.37037037037037035
aF0.8888888888888888
asg10
F0.8762962962962958
ssg14
(dp190
g8
(lp191
F0.3148148148148148
aF0.09259259259259259
aF0.1111111111111111
aF0.2222222222222222
aF0.14814814814814814
aF0.24074074074074073
aF0.1111111111111111
aF0.18518518518518517
aF0.2222222222222222
aF0.18518518518518517
aF0.2777777777777778
aF0.2222222222222222
aF0.2037037037037037
aF0.25925925925925924
aF0.16666666666666666
aF0.2222222222222222
aF0.3333333333333333
aF0.16666666666666666
aF0.2222222222222222
aF0.25925925925925924
aF0.2222222222222222
aF0.2222222222222222
aF0.24074074074074073
aF0.0
aF0.2037037037037037
aF0.2222222222222222
aF0.3148148148148148
aF0.3333333333333333
aF0.14814814814814814
aF0.12962962962962962
aF0.1111111111111111
aF0.12962962962962962
aF0.07407407407407407
aF0.25925925925925924
aF0.24074074074074073
aF0.2777777777777778
aF0.18518518518518517
aF0.25925925925925924
aF0.12962962962962962
aF0.14814814814814814
aF0.0
aF0.24074074074074073
aF0.09259259259259259
aF0.4074074074074074
aF0.18518518518518517
aF0.05555555555555555
aF0.2222222222222222
aF0.14814814814814814
aF0.2777777777777778
aF0.09259259259259259
asg10
F0.19481481481481486
sssF0.32
(dp192
g6
(dp193
g8
(lp194
F0.9019607843137255
aF0.9215686274509803
aF0.9019607843137255
aF0.8823529411764706
aF0.9215686274509803
aF0.9215686274509803
aF0.9019607843137255
aF0.8823529411764706
aF0.9019607843137255
aF0.9019607843137255
aF0.9215686274509803
aF0.9019607843137255
aF0.8823529411764706
aF0.9215686274509803
aF0.9019607843137255
aF0.8627450980392157
aF0.9215686274509803
aF0.9215686274509803
aF0.9019607843137255
aF0.9019607843137255
aF0.9411764705882353
aF0.9019607843137255
aF0.8627450980392157
aF0.8627450980392157
aF0.9411764705882353
aF0.9019607843137255
aF0.9019607843137255
aF0.8823529411764706
aF0.8823529411764706
aF0.9215686274509803
aF0.8823529411764706
aF0.8823529411764706
aF0.8823529411764706
aF0.8823529411764706
aF0.8823529411764706
aF0.9411764705882353
aF0.8823529411764706
aF0.9019607843137255
aF0.8823529411764706
aF0.9019607843137255
aF0.9411764705882353
aF0.9019607843137255
aF0.8627450980392157
aF0.9019607843137255
aF0.9411764705882353
aF0.8823529411764706
aF0.9215686274509803
aF0.9215686274509803
aF0.9019607843137255
aF0.9215686274509803
asg10
F0.9019607843137252
ssg11
(dp195
g8
(lp196
F0.9019607843137255
aF0.9411764705882353
aF0.9019607843137255
aF0.8823529411764706
aF0.9215686274509803
aF0.9215686274509803
aF0.0784313725490196
aF0.8823529411764706
aF0.9019607843137255
aF0.9019607843137255
aF0.9215686274509803
aF0.9019607843137255
aF0.8823529411764706
aF0.9215686274509803
aF0.9019607843137255
aF0.8627450980392157
aF0.9411764705882353
aF0.9215686274509803
aF0.9019607843137255
aF0.9019607843137255
aF0.9607843137254902
aF0.9019607843137255
aF0.8627450980392157
aF0.8627450980392157
aF0.9411764705882353
aF0.9019607843137255
aF0.9019607843137255
aF0.8823529411764706
aF0.8823529411764706
aF0.9215686274509803
aF0.8823529411764706
aF0.8823529411764706
aF0.8823529411764706
aF0.8823529411764706
aF0.8823529411764706
aF0.9607843137254902
aF0.8823529411764706
aF0.9019607843137255
aF0.8823529411764706
aF0.9411764705882353
aF0.9607843137254902
aF0.9019607843137255
aF0.8627450980392157
aF0.5294117647058824
aF0.9411764705882353
aF0.8823529411764706
aF0.9215686274509803
aF0.9215686274509803
aF0.9019607843137255
aF0.9215686274509803
asg10
F0.88078431372549
ssg14
(dp197
g8
(lp198
F0.29411764705882354
aF0.1568627450980392
aF0.09803921568627451
aF0.29411764705882354
aF0.17647058823529413
aF0.3137254901960784
aF0.0784313725490196
aF0.09803921568627451
aF0.27450980392156865
aF0.19607843137254902
aF0.17647058823529413
aF0.19607843137254902
aF0.13725490196078433
aF0.21568627450980393
aF0.09803921568627451
aF0.09803921568627451
aF0.19607843137254902
aF0.2549019607843137
aF0.29411764705882354
aF0.09803921568627451
aF0.2549019607843137
aF0.17647058823529413
aF0.11764705882352941
aF0.19607843137254902
aF0.11764705882352941
aF0.27450980392156865
aF0.1568627450980392
aF0.0784313725490196
aF0.2549019607843137
aF0.23529411764705882
aF0.19607843137254902
aF0.21568627450980393
aF0.2549019607843137
aF0.0
aF0.1568627450980392
aF0.23529411764705882
aF0.09803921568627451
aF0.29411764705882354
aF0.0784313725490196
aF0.19607843137254902
aF0.39215686274509803
aF0.21568627450980393
aF0.2549019607843137
aF0.19607843137254902
aF0.27450980392156865
aF0.1568627450980392
aF0.3137254901960784
aF0.23529411764705882
aF0.23529411764705882
aF0.35294117647058826
asg10
F0.1992156862745098
sssF0.1
(dp199
g6
(dp200
g8
(lp201
F0.9117647058823529
aF0.8970588235294118
aF0.8970588235294118
aF0.9117647058823529
aF0.9264705882352942
aF0.9411764705882353
aF0.9117647058823529
aF0.8970588235294118
aF0.9117647058823529
aF0.9264705882352942
aF0.8970588235294118
aF0.8970588235294118
aF0.9117647058823529
aF0.8970588235294118
aF0.9117647058823529
aF0.9117647058823529
aF0.9264705882352942
aF0.4852941176470588
aF0.8970588235294118
aF0.9117647058823529
aF0.8970588235294118
aF0.9117647058823529
aF0.9264705882352942
aF0.5588235294117647
aF0.9117647058823529
aF0.9117647058823529
aF0.9411764705882353
aF0.9117647058823529
aF0.6617647058823529
aF0.9558823529411765
aF0.9264705882352942
aF0.9264705882352942
aF0.8970588235294118
aF0.8970588235294118
aF0.9117647058823529
aF0.8970588235294118
aF0.8970588235294118
aF0.5147058823529411
aF0.8970588235294118
aF0.47058823529411764
aF0.8970588235294118
aF0.9117647058823529
aF0.8970588235294118
aF0.8970588235294118
aF0.9117647058823529
aF0.8970588235294118
aF0.4411764705882353
aF0.9264705882352942
aF0.9411764705882353
aF0.8970588235294118
asg10
F0.8644117647058823
ssg11
(dp202
g8
(lp203
F0.9264705882352942
aF0.11764705882352941
aF0.8970588235294118
aF0.5735294117647058
aF0.3235294117647059
aF0.9411764705882353
aF0.9117647058823529
aF0.5294117647058824
aF0.9117647058823529
aF0.11764705882352941
aF0.9117647058823529
aF0.8970588235294118
aF0.9264705882352942
aF0.8970588235294118
aF0.9264705882352942
aF0.9117647058823529
aF0.9264705882352942
aF0.4117647058823529
aF0.45588235294117646
aF0.5294117647058824
aF0.0
aF0.5147058823529411
aF0.9705882352941176
aF0.5441176470588235
aF0.7941176470588235
aF0.2647058823529412
aF0.5588235294117647
aF0.9117647058823529
aF0.5147058823529411
aF0.9558823529411765
aF0.9264705882352942
aF0.9264705882352942
aF0.8970588235294118
aF0.8970588235294118
aF0.4117647058823529
aF0.8970588235294118
aF0.0
aF0.23529411764705882
aF0.8970588235294118
aF0.27941176470588236
aF0.8970588235294118
aF0.5735294117647058
aF0.5441176470588235
aF0.9117647058823529
aF0.9264705882352942
aF0.8970588235294118
aF0.4264705882352941
aF0.9264705882352942
aF0.5147058823529411
aF0.8970588235294118
asg10
F0.6791176470588236
ssg14
(dp204
g8
(lp205
F0.16176470588235295
aF0.11764705882352941
aF0.1323529411764706
aF0.14705882352941177
aF0.1323529411764706
aF0.08823529411764706
aF0.10294117647058823
aF0.16176470588235295
aF0.17647058823529413
aF0.10294117647058823
aF0.20588235294117646
aF0.2647058823529412
aF0.19117647058823528
aF0.1323529411764706
aF0.16176470588235295
aF0.17647058823529413
aF0.11764705882352941
aF0.04411764705882353
aF0.058823529411764705
aF0.1323529411764706
aF0.04411764705882353
aF0.04411764705882353
aF0.11764705882352941
aF0.17647058823529413
aF0.1323529411764706
aF0.11764705882352941
aF0.19117647058823528
aF0.11764705882352941
aF0.20588235294117646
aF0.11764705882352941
aF0.17647058823529413
aF0.14705882352941177
aF0.10294117647058823
aF0.11764705882352941
aF0.16176470588235295
aF0.11764705882352941
aF0.11764705882352941
aF0.17647058823529413
aF0.22058823529411764
aF0.11764705882352941
aF0.08823529411764706
aF0.19117647058823528
aF0.14705882352941177
aF0.10294117647058823
aF0.14705882352941177
aF0.1323529411764706
aF0.10294117647058823
aF0.14705882352941177
aF0.17647058823529413
aF0.14705882352941177
asg10
F0.13823529411764704
sssF0.2
(dp206
g6
(dp207
g8
(lp208
F0.9
aF0.9166666666666666
aF0.9
aF0.9
aF0.9166666666666666
aF0.9166666666666666
aF0.9166666666666666
aF0.9166666666666666
aF0.9
aF0.9
aF0.9166666666666666
aF0.9166666666666666
aF0.8833333333333333
aF0.9
aF0.9333333333333333
aF0.9
aF0.9166666666666666
aF0.9166666666666666
aF0.9
aF0.9
aF0.9333333333333333
aF0.9
aF0.8833333333333333
aF0.8833333333333333
aF0.8833333333333333
aF0.9
aF0.9166666666666666
aF0.9166666666666666
aF0.9
aF0.9166666666666666
aF0.9166666666666666
aF0.8833333333333333
aF0.9166666666666666
aF0.9
aF0.8833333333333333
aF0.8833333333333333
aF0.9333333333333333
aF0.9333333333333333
aF0.9333333333333333
aF0.9166666666666666
aF0.9
aF0.9
aF0.9166666666666666
aF0.9
aF0.9
aF0.9166666666666666
aF0.9
aF0.9166666666666666
aF0.8833333333333333
aF0.9
asg10
F0.906666666666666
ssg11
(dp209
g8
(lp210
F0.9
aF0.9166666666666666
aF0.9
aF0.9
aF0.4
aF0.9166666666666666
aF0.9166666666666666
aF0.9166666666666666
aF0.2
aF0.9
aF0.1
aF0.9166666666666666
aF0.8833333333333333
aF0.9
aF0.9333333333333333
aF0.4666666666666667
aF0.9166666666666666
aF0.9166666666666666
aF0.9
aF0.9
aF0.95
aF0.9166666666666666
aF0.8833333333333333
aF0.8833333333333333
aF0.5
aF0.9
aF0.9166666666666666
aF0.9166666666666666
aF0.9
aF0.9333333333333333
aF0.4166666666666667
aF0.8833333333333333
aF0.9166666666666666
aF0.9
aF0.8833333333333333
aF0.8833333333333333
aF0.21666666666666667
aF0.9333333333333333
aF0.9333333333333333
aF0.9166666666666666
aF0.9
aF0.9
aF0.9166666666666666
aF0.2
aF0.9
aF0.9166666666666666
aF0.9
aF0.9166666666666666
aF0.8833333333333333
aF0.55
asg10
F0.805333333333333
ssg14
(dp211
g8
(lp212
F0.15
aF0.2
aF0.15
aF0.16666666666666666
aF0.2
aF0.13333333333333333
aF0.21666666666666667
aF0.11666666666666667
aF0.13333333333333333
aF0.2833333333333333
aF0.11666666666666667
aF0.11666666666666667
aF0.15
aF0.3
aF0.2
aF0.06666666666666667
aF0.16666666666666666
aF0.2
aF0.18333333333333332
aF0.13333333333333333
aF0.21666666666666667
aF0.11666666666666667
aF0.13333333333333333
aF0.0
aF0.25
aF0.21666666666666667
aF0.13333333333333333
aF0.18333333333333332
aF0.13333333333333333
aF0.21666666666666667
aF0.15
aF0.05
aF0.11666666666666667
aF0.15
aF0.21666666666666667
aF0.23333333333333334
aF0.11666666666666667
aF0.21666666666666667
aF0.1
aF0.25
aF0.16666666666666666
aF0.1
aF0.13333333333333333
aF0.13333333333333333
aF0.21666666666666667
aF0.15
aF0.23333333333333334
aF0.3
aF0.16666666666666666
aF0.25
asg10
F0.16866666666666671
sssF0.54
(dp213
g6
(dp214
g8
(lp215
F0.8857142857142857
aF0.8571428571428571
aF0.8571428571428571
aF0.8857142857142857
aF0.8857142857142857
aF0.9142857142857143
aF0.8857142857142857
aF0.8571428571428571
aF0.8857142857142857
aF0.9142857142857143
aF0.8571428571428571
aF0.9142857142857143
aF0.8857142857142857
aF0.8571428571428571
aF0.8857142857142857
aF0.9142857142857143
aF0.9428571428571428
aF0.8857142857142857
aF0.9142857142857143
aF0.8285714285714286
aF0.9714285714285714
aF0.8571428571428571
aF0.9714285714285714
aF0.9142857142857143
aF0.8571428571428571
aF0.9714285714285714
aF0.9428571428571428
aF0.9428571428571428
aF0.8285714285714286
aF0.8
aF0.9142857142857143
aF0.9428571428571428
aF0.9142857142857143
aF0.8857142857142857
aF0.9428571428571428
aF0.9428571428571428
aF0.9428571428571428
aF0.9428571428571428
aF0.9142857142857143
aF0.8571428571428571
aF0.9428571428571428
aF1.0
aF0.9142857142857143
aF0.8571428571428571
aF0.8857142857142857
aF0.9142857142857143
aF0.8857142857142857
aF0.9428571428571428
aF0.9142857142857143
aF0.8571428571428571
asg10
F0.9017142857142855
ssg11
(dp216
g8
(lp217
F0.8857142857142857
aF0.8571428571428571
aF0.8571428571428571
aF0.8857142857142857
aF0.8857142857142857
aF0.9142857142857143
aF0.8857142857142857
aF0.8571428571428571
aF0.8857142857142857
aF0.9142857142857143
aF0.8571428571428571
aF0.9142857142857143
aF0.8857142857142857
aF0.8571428571428571
aF0.9142857142857143
aF0.9142857142857143
aF0.9428571428571428
aF0.8857142857142857
aF0.9142857142857143
aF0.8285714285714286
aF0.9714285714285714
aF0.8571428571428571
aF0.9714285714285714
aF0.9142857142857143
aF0.8571428571428571
aF0.9714285714285714
aF0.9428571428571428
aF0.9714285714285714
aF0.8285714285714286
aF0.8
aF0.9142857142857143
aF0.9428571428571428
aF0.9142857142857143
aF0.8857142857142857
aF0.9428571428571428
aF0.9428571428571428
aF0.9428571428571428
aF0.9428571428571428
aF0.9142857142857143
aF0.8571428571428571
aF0.9428571428571428
aF1.0
aF0.9142857142857143
aF0.8571428571428571
aF0.8857142857142857
aF0.9142857142857143
aF0.8857142857142857
aF0.9428571428571428
aF0.9428571428571428
aF0.8571428571428571
asg10
F0.9034285714285712
ssg14
(dp218
g8
(lp219
F0.8857142857142857
aF0.9142857142857143
aF0.9142857142857143
aF0.9142857142857143
aF0.2571428571428571
aF0.5142857142857142
aF0.8857142857142857
aF0.4
aF0.8857142857142857
aF0.22857142857142856
aF0.8571428571428571
aF0.6285714285714286
aF0.4
aF0.45714285714285713
aF0.9142857142857143
aF0.9142857142857143
aF0.6571428571428571
aF0.42857142857142855
aF0.9142857142857143
aF0.8285714285714286
aF0.3142857142857143
aF0.4
aF0.8857142857142857
aF0.4
aF0.8571428571428571
aF0.6285714285714286
aF0.5428571428571428
aF0.37142857142857144
aF0.8571428571428571
aF0.8
aF0.6571428571428571
aF0.7714285714285715
aF0.9142857142857143
aF0.37142857142857144
aF0.0
aF0.9714285714285714
aF0.9428571428571428
aF0.7428571428571429
aF0.45714285714285713
aF0.8857142857142857
aF0.5142857142857142
aF1.0
aF0.9428571428571428
aF0.45714285714285713
aF0.5142857142857142
aF0.4857142857142857
aF0.8857142857142857
aF0.5142857142857142
aF0.9428571428571428
aF0.2857142857142857
asg10
F0.6622857142857143
sssF0.34
(dp220
g6
(dp221
g8
(lp222
F0.88
aF0.92
aF0.94
aF0.88
aF0.9
aF0.92
aF0.9
aF0.94
aF0.9
aF0.96
aF0.92
aF0.88
aF0.88
aF0.88
aF0.86
aF0.96
aF0.9
aF0.92
aF0.9
aF0.88
aF0.9
aF0.92
aF0.88
aF0.88
aF0.9
aF0.9
aF0.92
aF0.88
aF0.94
aF0.92
aF0.86
aF0.9
aF0.9
aF0.9
aF0.92
aF0.92
aF0.94
aF0.94
aF0.9
aF0.9
aF0.88
aF0.86
aF0.9
aF0.96
aF0.88
aF0.96
aF0.9
aF0.9
aF0.88
aF0.9
asg10
F0.9051999999999998
ssg11
(dp223
g8
(lp224
F0.88
aF0.94
aF0.94
aF0.88
aF0.9
aF0.92
aF0.9
aF0.94
aF0.9
aF0.96
aF0.94
aF0.88
aF0.88
aF0.88
aF0.86
aF0.96
aF0.9
aF0.92
aF0.9
aF0.88
aF0.9
aF0.92
aF0.88
aF0.88
aF0.9
aF0.32
aF0.92
aF0.88
aF0.94
aF0.92
aF0.86
aF0.92
aF0.9
aF0.9
aF0.92
aF0.08
aF0.94
aF0.94
aF0.42
aF0.9
aF0.88
aF0.86
aF0.92
aF0.96
aF0.88
aF0.96
aF0.9
aF0.9
aF0.88
aF0.9
asg10
F0.8688000000000001
ssg14
(dp225
g8
(lp226
F0.2
aF0.2
aF0.22
aF0.3
aF0.26
aF0.22
aF0.1
aF0.32
aF0.12
aF0.28
aF0.12
aF0.22
aF0.2
aF0.1
aF0.08
aF0.32
aF0.18
aF0.3
aF0.2
aF0.16
aF0.16
aF0.3
aF0.24
aF0.0
aF0.12
aF0.14
aF0.32
aF0.06
aF0.34
aF0.08
aF0.1
aF0.24
aF0.28
aF0.0
aF0.12
aF0.08
aF0.3
aF0.24
aF0.12
aF0.28
aF0.28
aF0.12
aF0.26
aF0.1
aF0.14
aF0.24
aF0.16
aF0.24
aF0.12
aF0.04
asg10
F0.1864
sssF0.52
(dp227
g6
(dp228
g8
(lp229
F0.9166666666666666
aF0.9444444444444444
aF0.9166666666666666
aF0.8611111111111112
aF0.9444444444444444
aF0.8888888888888888
aF0.8888888888888888
aF0.8888888888888888
aF0.8888888888888888
aF0.9166666666666666
aF0.8888888888888888
aF0.9444444444444444
aF0.8888888888888888
aF0.8611111111111112
aF0.9444444444444444
aF0.8888888888888888
aF0.8611111111111112
aF0.9444444444444444
aF0.9166666666666666
aF0.9166666666666666
aF0.9166666666666666
aF0.9166666666666666
aF0.8611111111111112
aF0.8888888888888888
aF0.9444444444444444
aF0.8611111111111112
aF0.8333333333333334
aF0.9166666666666666
aF0.9444444444444444
aF0.8888888888888888
aF0.8888888888888888
aF0.9444444444444444
aF0.9444444444444444
aF0.8611111111111112
aF0.9444444444444444
aF0.9166666666666666
aF0.9166666666666666
aF0.9166666666666666
aF0.9166666666666666
aF0.8888888888888888
aF0.9444444444444444
aF0.9444444444444444
aF0.9166666666666666
aF0.9722222222222222
aF0.8888888888888888
aF0.8888888888888888
aF0.9444444444444444
aF0.9444444444444444
aF0.8611111111111112
aF0.8611111111111112
asg10
F0.9077777777777772
ssg11
(dp230
g8
(lp231
F0.9166666666666666
aF0.9444444444444444
aF0.9166666666666666
aF0.8611111111111112
aF0.9444444444444444
aF0.8888888888888888
aF0.8888888888888888
aF0.8888888888888888
aF0.8888888888888888
aF0.9166666666666666
aF0.8888888888888888
aF0.9444444444444444
aF0.8888888888888888
aF0.8611111111111112
aF0.9444444444444444
aF0.8888888888888888
aF0.8611111111111112
aF0.9444444444444444
aF0.9166666666666666
aF0.9166666666666666
aF0.9166666666666666
aF0.9166666666666666
aF0.8611111111111112
aF0.8888888888888888
aF0.9444444444444444
aF0.8611111111111112
aF0.8333333333333334
aF0.9166666666666666
aF0.9444444444444444
aF0.8888888888888888
aF0.8888888888888888
aF0.9444444444444444
aF0.9444444444444444
aF0.8611111111111112
aF0.9444444444444444
aF0.9166666666666666
aF0.9166666666666666
aF0.9166666666666666
aF0.9166666666666666
aF0.8888888888888888
aF0.9444444444444444
aF0.9444444444444444
aF0.9444444444444444
aF0.9722222222222222
aF0.8888888888888888
aF0.8888888888888888
aF0.9444444444444444
aF0.9444444444444444
aF0.8611111111111112
aF0.8611111111111112
asg10
F0.9083333333333329
ssg14
(dp232
g8
(lp233
F0.3888888888888889
aF0.3333333333333333
aF0.5555555555555556
aF0.8611111111111112
aF0.9444444444444444
aF0.3333333333333333
aF0.9444444444444444
aF0.9166666666666666
aF0.8888888888888888
aF0.3888888888888889
aF0.6666666666666666
aF0.9444444444444444
aF0.5277777777777778
aF0.4444444444444444
aF0.9722222222222222
aF0.9166666666666666
aF0.8611111111111112
aF0.9166666666666666
aF0.9166666666666666
aF0.19444444444444445
aF0.9166666666666666
aF0.4722222222222222
aF0.3055555555555556
aF0.5833333333333334
aF0.7222222222222222
aF0.4722222222222222
aF0.4444444444444444
aF0.7777777777777778
aF0.5555555555555556
aF0.9444444444444444
aF0.4166666666666667
aF0.9166666666666666
aF0.9722222222222222
aF0.9166666666666666
aF0.16666666666666666
aF0.9444444444444444
aF0.5277777777777778
aF0.5555555555555556
aF0.9166666666666666
aF0.2222222222222222
aF0.4722222222222222
aF0.9444444444444444
aF0.4444444444444444
aF0.6111111111111112
aF0.8888888888888888
aF0.8888888888888888
aF0.4166666666666667
aF0.4166666666666667
aF0.8611111111111112
aF0.2222222222222222
asg10
F0.6566666666666666
sssF0.62
(dp234
g6
(dp235
g8
(lp236
F0.9655172413793104
aF0.9310344827586207
aF0.9655172413793104
aF0.896551724137931
aF0.9310344827586207
aF0.9310344827586207
aF0.9655172413793104
aF0.896551724137931
aF0.9310344827586207
aF0.9310344827586207
aF0.9310344827586207
aF0.896551724137931
aF0.8620689655172413
aF0.896551724137931
aF0.8620689655172413
aF0.9310344827586207
aF0.896551724137931
aF0.896551724137931
aF0.9310344827586207
aF0.9310344827586207
aF0.9655172413793104
aF0.896551724137931
aF0.9310344827586207
aF0.896551724137931
aF0.896551724137931
aF0.8620689655172413
aF0.8275862068965517
aF0.896551724137931
aF0.9310344827586207
aF0.9655172413793104
aF0.9310344827586207
aF0.896551724137931
aF0.8275862068965517
aF0.9310344827586207
aF0.896551724137931
aF0.9310344827586207
aF0.8620689655172413
aF0.9655172413793104
aF0.896551724137931
aF0.8620689655172413
aF0.896551724137931
aF0.896551724137931
aF0.896551724137931
aF0.8275862068965517
aF0.7931034482758621
aF0.9655172413793104
aF0.896551724137931
aF0.9655172413793104
aF0.8620689655172413
aF0.896551724137931
asg10
F0.9068965517241376
ssg11
(dp237
g8
(lp238
F0.9655172413793104
aF0.9310344827586207
aF0.9655172413793104
aF0.896551724137931
aF0.9310344827586207
aF0.9310344827586207
aF0.9655172413793104
aF0.896551724137931
aF0.9310344827586207
aF0.9310344827586207
aF0.9310344827586207
aF0.896551724137931
aF0.8620689655172413
aF0.896551724137931
aF0.8620689655172413
aF0.9310344827586207
aF0.896551724137931
aF0.896551724137931
aF0.9310344827586207
aF0.9310344827586207
aF0.9655172413793104
aF0.896551724137931
aF0.9310344827586207
aF0.896551724137931
aF0.896551724137931
aF0.8620689655172413
aF0.8275862068965517
aF0.896551724137931
aF0.9310344827586207
aF0.9655172413793104
aF0.9310344827586207
aF0.896551724137931
aF0.8275862068965517
aF0.9310344827586207
aF0.896551724137931
aF0.9310344827586207
aF0.8620689655172413
aF0.9655172413793104
aF0.896551724137931
aF0.8620689655172413
aF0.896551724137931
aF0.896551724137931
aF0.896551724137931
aF0.8275862068965517
aF0.7931034482758621
aF0.9655172413793104
aF0.896551724137931
aF0.9655172413793104
aF0.896551724137931
aF0.896551724137931
asg10
F0.9075862068965515
ssg14
(dp239
g8
(lp240
F0.6206896551724138
aF0.9655172413793104
aF0.3793103448275862
aF0.9310344827586207
aF0.9310344827586207
aF0.9310344827586207
aF0.6896551724137931
aF0.896551724137931
aF0.9310344827586207
aF0.9310344827586207
aF0.5172413793103449
aF0.896551724137931
aF0.2413793103448276
aF0.896551724137931
aF0.8620689655172413
aF0.9655172413793104
aF0.896551724137931
aF0.896551724137931
aF0.3448275862068966
aF0.9310344827586207
aF0.9655172413793104
aF0.896551724137931
aF0.20689655172413793
aF0.3793103448275862
aF0.3793103448275862
aF0.8620689655172413
aF0.3103448275862069
aF0.9310344827586207
aF0.9310344827586207
aF0.41379310344827586
aF0.9310344827586207
aF0.27586206896551724
aF0.8275862068965517
aF0.9310344827586207
aF0.9310344827586207
aF0.9310344827586207
aF0.8620689655172413
aF0.5517241379310345
aF0.896551724137931
aF0.896551724137931
aF0.896551724137931
aF0.896551724137931
aF0.896551724137931
aF0.8275862068965517
aF0.7931034482758621
aF0.9655172413793104
aF0.896551724137931
aF0.9655172413793104
aF0.896551724137931
aF0.3793103448275862
asg10
F0.7675862068965518
sssF0.14
(dp241
g6
(dp242
g8
(lp243
F0.9076923076923077
aF0.9230769230769231
aF0.8923076923076924
aF0.8923076923076924
aF0.8923076923076924
aF0.5538461538461539
aF0.9076923076923077
aF0.8923076923076924
aF0.9076923076923077
aF0.8923076923076924
aF0.9384615384615385
aF0.8923076923076924
aF0.9076923076923077
aF0.9076923076923077
aF0.9076923076923077
aF0.8923076923076924
aF0.9230769230769231
aF0.9076923076923077
aF0.9076923076923077
aF0.5538461538461539
aF0.8923076923076924
aF0.9230769230769231
aF0.8923076923076924
aF0.9230769230769231
aF0.9384615384615385
aF0.8923076923076924
aF0.9076923076923077
aF0.9076923076923077
aF0.9076923076923077
aF0.9076923076923077
aF0.8923076923076924
aF0.8923076923076924
aF0.9076923076923077
aF0.9230769230769231
aF0.9230769230769231
aF0.9076923076923077
aF0.9230769230769231
aF0.8923076923076924
aF0.8923076923076924
aF0.9076923076923077
aF0.9230769230769231
aF0.9076923076923077
aF0.9230769230769231
aF0.9076923076923077
aF0.9230769230769231
aF0.9076923076923077
aF0.9230769230769231
aF0.9384615384615385
aF0.9076923076923077
aF0.9076923076923077
asg10
F0.8944615384615383
ssg11
(dp244
g8
(lp245
F0.9076923076923077
aF0.9230769230769231
aF0.8923076923076924
aF0.8923076923076924
aF0.8923076923076924
aF0.4307692307692308
aF0.9076923076923077
aF0.47692307692307695
aF0.7384615384615385
aF0.8923076923076924
aF0.5846153846153846
aF0.8923076923076924
aF0.9076923076923077
aF0.9076923076923077
aF0.9076923076923077
aF0.4153846153846154
aF0.9230769230769231
aF0.9076923076923077
aF0.5538461538461539
aF0.47692307692307695
aF0.8923076923076924
aF0.9230769230769231
aF0.2
aF0.9230769230769231
aF0.0
aF0.8923076923076924
aF0.9076923076923077
aF0.24615384615384617
aF0.9076923076923077
aF0.9076923076923077
aF0.8923076923076924
aF0.9076923076923077
aF0.9076923076923077
aF0.5384615384615384
aF0.9230769230769231
aF0.9076923076923077
aF0.9384615384615385
aF0.9230769230769231
aF0.8923076923076924
aF0.9076923076923077
aF0.5230769230769231
aF0.9076923076923077
aF0.8615384615384616
aF0.9076923076923077
aF0.9230769230769231
aF0.9076923076923077
aF0.9230769230769231
aF0.0
aF0.3384615384615385
aF0.9076923076923077
asg10
F0.7633846153846153
ssg14
(dp246
g8
(lp247
F0.1076923076923077
aF0.26153846153846155
aF0.24615384615384617
aF0.1076923076923077
aF0.15384615384615385
aF0.24615384615384617
aF0.09230769230769231
aF0.1076923076923077
aF0.2
aF0.15384615384615385
aF0.15384615384615385
aF0.18461538461538463
aF0.18461538461538463
aF0.16923076923076924
aF0.12307692307692308
aF0.13846153846153847
aF0.15384615384615385
aF0.12307692307692308
aF0.15384615384615385
aF0.24615384615384617
aF0.12307692307692308
aF0.15384615384615385
aF0.09230769230769231
aF0.09230769230769231
aF0.18461538461538463
aF0.12307692307692308
aF0.1076923076923077
aF0.15384615384615385
aF0.13846153846153847
aF0.16923076923076924
aF0.15384615384615385
aF0.12307692307692308
aF0.2153846153846154
aF0.18461538461538463
aF0.13846153846153847
aF0.15384615384615385
aF0.15384615384615385
aF0.15384615384615385
aF0.13846153846153847
aF0.15384615384615385
aF0.2153846153846154
aF0.16923076923076924
aF0.13846153846153847
aF0.18461538461538463
aF0.15384615384615385
aF0.16923076923076924
aF0.12307692307692308
aF0.16923076923076924
aF0.12307692307692308
aF0.16923076923076924
asg10
F0.1566153846153847
ssss.