(dp0
S'test_set'
p1
S'black'
p2
sS'step_percentage'
p3
F0.05
sS'results'
p4
(dp5
F0.25
(dp6
S'pseudo'
p7
(dp8
S'recalls'
p9
(lp10
F0.8947368421052632
aF0.9122807017543859
aF0.8947368421052632
aF0.8947368421052632
aF0.9298245614035088
aF0.9298245614035088
aF0.8771929824561403
aF0.9298245614035088
aF0.8947368421052632
aF0.9122807017543859
aF0.8771929824561403
aF0.8947368421052632
aF0.8771929824561403
aF0.9298245614035088
aF0.8947368421052632
aF0.8947368421052632
aF0.8947368421052632
aF0.9122807017543859
aF0.9298245614035088
aF0.9122807017543859
aF0.9122807017543859
aF0.8771929824561403
aF0.8947368421052632
aF0.8771929824561403
aF0.8947368421052632
aF0.8947368421052632
aF0.9298245614035088
aF0.9122807017543859
aF0.5789473684210527
aF0.8771929824561403
aF0.8771929824561403
aF0.9122807017543859
aF0.9122807017543859
aF0.8947368421052632
aF0.9298245614035088
aF0.9122807017543859
aF0.9298245614035088
aF0.8947368421052632
aF0.8947368421052632
aF0.9122807017543859
aF0.49122807017543857
aF0.8771929824561403
aF0.8947368421052632
aF0.9122807017543859
aF0.9298245614035088
aF0.8947368421052632
aF0.9122807017543859
aF0.8947368421052632
aF0.9122807017543859
aF0.8771929824561403
assS'ide_dec'
p11
(dp12
g9
(lp13
F0.8947368421052632
aF0.9122807017543859
aF0.8947368421052632
aF0.8947368421052632
aF0.9298245614035088
aF0.9298245614035088
aF0.8771929824561403
aF0.9298245614035088
aF0.8947368421052632
aF0.9122807017543859
aF0.8771929824561403
aF0.8947368421052632
aF0.8771929824561403
aF0.9298245614035088
aF0.8947368421052632
aF0.8947368421052632
aF0.8947368421052632
aF0.9122807017543859
aF0.9298245614035088
aF0.9122807017543859
aF0.9122807017543859
aF0.8771929824561403
aF0.8947368421052632
aF0.8771929824561403
aF0.8947368421052632
aF0.9122807017543859
aF0.9298245614035088
aF0.9122807017543859
aF0.8947368421052632
aF0.8771929824561403
aF0.8771929824561403
aF0.9122807017543859
aF0.9122807017543859
aF0.8947368421052632
aF0.9298245614035088
aF0.9122807017543859
aF0.9298245614035088
aF0.8947368421052632
aF0.8947368421052632
aF0.9122807017543859
aF0.9122807017543859
aF0.8771929824561403
aF0.8947368421052632
aF0.9122807017543859
aF0.9298245614035088
aF0.8947368421052632
aF0.9122807017543859
aF0.8947368421052632
aF0.9122807017543859
aF0.8771929824561403
assS'rocchio'
p14
(dp15
g9
(lp16
F0.017543859649122806
aF0.12280701754385964
aF0.2982456140350877
aF0.0
aF0.05263157894736842
aF0.15789473684210525
aF0.12280701754385964
aF0.3508771929824561
aF0.10526315789473684
aF0.05263157894736842
aF0.21052631578947367
aF0.3333333333333333
aF0.14035087719298245
aF0.24561403508771928
aF0.21052631578947367
aF0.08771929824561403
aF0.49122807017543857
aF0.15789473684210525
aF0.17543859649122806
aF0.0
aF0.12280701754385964
aF0.17543859649122806
aF0.2631578947368421
aF0.17543859649122806
aF0.08771929824561403
aF0.15789473684210525
aF0.24561403508771928
aF0.08771929824561403
aF0.0
aF0.12280701754385964
aF0.14035087719298245
aF0.3333333333333333
aF0.14035087719298245
aF0.7192982456140351
aF0.24561403508771928
aF0.3508771929824561
aF0.24561403508771928
aF0.3508771929824561
aF0.22807017543859648
aF0.08771929824561403
aF0.40350877192982454
aF0.2982456140350877
aF0.3333333333333333
aF0.21052631578947367
aF0.17543859649122806
aF0.14035087719298245
aF0.08771929824561403
aF0.3157894736842105
aF0.3508771929824561
aF0.14035087719298245
assS'ide_regular'
p17
(dp18
g9
(lp19
F0.14035087719298245
aF0.21052631578947367
aF0.2807017543859649
aF0.3157894736842105
aF0.19298245614035087
aF0.2631578947368421
aF0.22807017543859648
aF0.19298245614035087
aF0.10526315789473684
aF0.2631578947368421
aF0.10526315789473684
aF0.19298245614035087
aF0.24561403508771928
aF0.15789473684210525
aF0.14035087719298245
aF0.15789473684210525
aF0.24561403508771928
aF0.21052631578947367
aF0.17543859649122806
aF0.0
aF0.14035087719298245
aF0.14035087719298245
aF0.19298245614035087
aF0.2631578947368421
aF0.08771929824561403
aF0.08771929824561403
aF0.15789473684210525
aF0.08771929824561403
aF0.0
aF0.12280701754385964
aF0.19298245614035087
aF0.14035087719298245
aF0.12280701754385964
aF0.15789473684210525
aF0.24561403508771928
aF0.22807017543859648
aF0.2631578947368421
aF0.15789473684210525
aF0.22807017543859648
aF0.22807017543859648
aF0.2631578947368421
aF0.22807017543859648
aF0.14035087719298245
aF0.2807017543859649
aF0.14035087719298245
aF0.12280701754385964
aF0.08771929824561403
aF0.21052631578947367
aF0.14035087719298245
aF0.19298245614035087
asssF0.5
(dp20
g7
(dp21
g9
(lp22
F0.9473684210526315
aF0.8947368421052632
aF0.868421052631579
aF0.9473684210526315
aF0.8947368421052632
aF0.8947368421052632
aF0.9736842105263158
aF0.8421052631578947
aF0.868421052631579
aF0.8421052631578947
aF0.8947368421052632
aF0.868421052631579
aF0.9473684210526315
aF0.868421052631579
aF0.8947368421052632
aF0.9473684210526315
aF0.8947368421052632
aF0.9210526315789473
aF0.9473684210526315
aF0.868421052631579
aF0.8947368421052632
aF0.8421052631578947
aF0.8421052631578947
aF0.8947368421052632
aF0.8947368421052632
aF0.9210526315789473
aF0.868421052631579
aF0.868421052631579
aF0.868421052631579
aF0.9473684210526315
aF0.9210526315789473
aF0.9473684210526315
aF0.868421052631579
aF0.8421052631578947
aF0.8947368421052632
aF0.868421052631579
aF0.9473684210526315
aF0.9210526315789473
aF0.9210526315789473
aF0.9210526315789473
aF0.9473684210526315
aF0.9210526315789473
aF0.9473684210526315
aF0.8421052631578947
aF0.9210526315789473
aF0.9210526315789473
aF0.8947368421052632
aF0.9210526315789473
aF0.8947368421052632
aF0.868421052631579
assg11
(dp23
g9
(lp24
F0.9473684210526315
aF0.8947368421052632
aF0.868421052631579
aF0.9473684210526315
aF0.8947368421052632
aF0.8947368421052632
aF0.9736842105263158
aF0.8421052631578947
aF0.868421052631579
aF0.8421052631578947
aF0.8947368421052632
aF0.868421052631579
aF0.9473684210526315
aF0.868421052631579
aF0.8947368421052632
aF0.9473684210526315
aF0.8947368421052632
aF0.9210526315789473
aF0.9473684210526315
aF0.868421052631579
aF0.8947368421052632
aF0.8421052631578947
aF0.8421052631578947
aF0.8947368421052632
aF0.8947368421052632
aF0.9210526315789473
aF0.868421052631579
aF0.868421052631579
aF0.868421052631579
aF0.9473684210526315
aF0.9210526315789473
aF0.9473684210526315
aF0.868421052631579
aF0.8421052631578947
aF0.8947368421052632
aF0.868421052631579
aF0.9473684210526315
aF0.9210526315789473
aF0.9210526315789473
aF0.9210526315789473
aF0.9473684210526315
aF0.9210526315789473
aF0.9473684210526315
aF0.8421052631578947
aF0.9210526315789473
aF0.9210526315789473
aF0.8947368421052632
aF0.9210526315789473
aF0.8947368421052632
aF0.868421052631579
assg14
(dp25
g9
(lp26
F0.2894736842105263
aF0.2631578947368421
aF0.4473684210526316
aF0.2631578947368421
aF0.21052631578947367
aF0.21052631578947367
aF0.21052631578947367
aF0.34210526315789475
aF0.2631578947368421
aF0.34210526315789475
aF0.42105263157894735
aF0.05263157894736842
aF0.23684210526315788
aF0.3684210526315789
aF0.15789473684210525
aF0.15789473684210525
aF0.10526315789473684
aF0.05263157894736842
aF0.47368421052631576
aF0.34210526315789475
aF0.10526315789473684
aF0.2894736842105263
aF0.42105263157894735
aF0.21052631578947367
aF0.3157894736842105
aF0.23684210526315788
aF0.39473684210526316
aF0.21052631578947367
aF0.3157894736842105
aF0.18421052631578946
aF0.15789473684210525
aF0.4473684210526316
aF0.23684210526315788
aF0.18421052631578946
aF0.23684210526315788
aF0.34210526315789475
aF0.34210526315789475
aF0.2894736842105263
aF0.5526315789473685
aF0.5263157894736842
aF0.23684210526315788
aF0.18421052631578946
aF0.3157894736842105
aF0.2631578947368421
aF0.39473684210526316
aF0.10526315789473684
aF0.5
aF0.13157894736842105
aF0.3684210526315789
aF0.34210526315789475
assg17
(dp27
g9
(lp28
F0.4473684210526316
aF0.15789473684210525
aF0.868421052631579
aF0.3157894736842105
aF0.8947368421052632
aF0.8947368421052632
aF0.18421052631578946
aF0.47368421052631576
aF0.9210526315789473
aF0.23684210526315788
aF0.47368421052631576
aF0.05263157894736842
aF0.39473684210526316
aF0.42105263157894735
aF0.34210526315789475
aF0.10526315789473684
aF0.0
aF0.7368421052631579
aF0.4473684210526316
aF0.6052631578947368
aF0.8947368421052632
aF0.3684210526315789
aF0.8421052631578947
aF0.39473684210526316
aF0.631578947368421
aF0.5263157894736842
aF0.18421052631578946
aF0.5263157894736842
aF0.47368421052631576
aF0.7105263157894737
aF0.39473684210526316
aF0.47368421052631576
aF0.8157894736842105
aF0.5789473684210527
aF0.9210526315789473
aF0.7894736842105263
aF0.42105263157894735
aF0.5263157894736842
aF0.6842105263157895
aF0.3157894736842105
aF0.0
aF0.9210526315789473
aF0.5
aF0.47368421052631576
aF0.7105263157894737
aF0.23684210526315788
aF0.5789473684210527
aF0.5789473684210527
aF0.9210526315789473
aF0.39473684210526316
asssF0.6
(dp29
g7
(dp30
g9
(lp31
F0.8666666666666667
aF0.9333333333333333
aF0.9666666666666667
aF0.8666666666666667
aF0.8333333333333334
aF0.9
aF0.9333333333333333
aF0.9333333333333333
aF0.9
aF0.8666666666666667
aF0.8666666666666667
aF0.9333333333333333
aF0.8666666666666667
aF0.9
aF1.0
aF0.8
aF0.9
aF0.9333333333333333
aF0.8666666666666667
aF0.9666666666666667
aF0.8666666666666667
aF0.9
aF0.9666666666666667
aF0.8666666666666667
aF0.8666666666666667
aF0.9666666666666667
aF0.8666666666666667
aF0.9666666666666667
aF0.8666666666666667
aF0.8666666666666667
aF0.9333333333333333
aF0.9
aF0.9333333333333333
aF0.9333333333333333
aF0.9333333333333333
aF0.9333333333333333
aF0.9
aF0.9333333333333333
aF0.9333333333333333
aF0.8333333333333334
aF0.8666666666666667
aF0.9
aF0.9333333333333333
aF0.8333333333333334
aF0.9
aF0.9
aF0.9
aF0.9666666666666667
aF0.9333333333333333
aF0.9
assg11
(dp32
g9
(lp33
F0.8666666666666667
aF0.9333333333333333
aF0.9666666666666667
aF0.8666666666666667
aF0.8333333333333334
aF0.9
aF0.9333333333333333
aF0.9333333333333333
aF0.9
aF0.8666666666666667
aF0.8666666666666667
aF0.9333333333333333
aF0.8666666666666667
aF0.9
aF1.0
aF0.8
aF0.9
aF0.9333333333333333
aF0.8666666666666667
aF0.9666666666666667
aF0.8666666666666667
aF0.9
aF0.9666666666666667
aF0.8666666666666667
aF0.8666666666666667
aF0.9666666666666667
aF0.8666666666666667
aF0.9666666666666667
aF0.8666666666666667
aF0.8666666666666667
aF0.9333333333333333
aF0.9
aF0.9333333333333333
aF0.9333333333333333
aF0.9333333333333333
aF0.9333333333333333
aF0.9
aF0.9333333333333333
aF0.9333333333333333
aF0.8333333333333334
aF0.8666666666666667
aF0.9
aF0.9333333333333333
aF0.8333333333333334
aF0.9
aF0.9
aF0.9
aF0.9666666666666667
aF0.9333333333333333
aF0.9
assg14
(dp34
g9
(lp35
F0.13333333333333333
aF0.23333333333333334
aF0.13333333333333333
aF0.23333333333333334
aF0.3
aF0.3
aF0.16666666666666666
aF0.3
aF0.06666666666666667
aF0.26666666666666666
aF0.16666666666666666
aF0.3
aF0.4
aF0.3
aF0.23333333333333334
aF0.4
aF0.23333333333333334
aF0.3
aF0.3333333333333333
aF0.2
aF0.4666666666666667
aF0.26666666666666666
aF0.36666666666666664
aF0.26666666666666666
aF0.3
aF0.06666666666666667
aF0.06666666666666667
aF0.16666666666666666
aF0.26666666666666666
aF0.5333333333333333
aF0.13333333333333333
aF0.23333333333333334
aF0.1
aF0.3333333333333333
aF0.1
aF0.2
aF0.3333333333333333
aF0.43333333333333335
aF0.4
aF0.3333333333333333
aF0.5333333333333333
aF0.13333333333333333
aF0.13333333333333333
aF0.36666666666666664
aF0.23333333333333334
aF0.13333333333333333
aF0.2
aF0.16666666666666666
aF0.26666666666666666
aF0.36666666666666664
assg17
(dp36
g9
(lp37
F0.8666666666666667
aF0.4
aF0.3333333333333333
aF0.8666666666666667
aF0.8333333333333334
aF0.9
aF0.6333333333333333
aF0.9333333333333333
aF0.4666666666666667
aF0.8666666666666667
aF0.8666666666666667
aF0.6333333333333333
aF0.8666666666666667
aF0.9
aF1.0
aF0.8
aF0.9
aF0.5666666666666667
aF0.4666666666666667
aF0.4
aF0.8666666666666667
aF0.2
aF0.5666666666666667
aF0.8666666666666667
aF0.8666666666666667
aF0.16666666666666666
aF0.3
aF0.9666666666666667
aF0.8666666666666667
aF0.8666666666666667
aF0.9666666666666667
aF0.9
aF0.9333333333333333
aF0.8333333333333334
aF0.9333333333333333
aF0.9333333333333333
aF0.9
aF0.9333333333333333
aF0.9333333333333333
aF0.8666666666666667
aF0.8666666666666667
aF0.4666666666666667
aF0.36666666666666664
aF0.8333333333333334
aF0.9
aF0.9
aF0.9
aF0.36666666666666664
aF0.9333333333333333
aF0.9
asssF0.1
(dp38
g7
(dp39
g9
(lp40
F0.4264705882352941
aF0.9264705882352942
aF0.9264705882352942
aF0.8970588235294118
aF0.9117647058823529
aF0.9117647058823529
aF0.8970588235294118
aF0.9117647058823529
aF0.9117647058823529
aF0.9117647058823529
aF0.8970588235294118
aF0.8970588235294118
aF0.9117647058823529
aF0.9117647058823529
aF0.38235294117647056
aF0.5882352941176471
aF0.9117647058823529
aF0.38235294117647056
aF0.9117647058823529
aF0.9117647058823529
aF0.9264705882352942
aF0.9117647058823529
aF0.9117647058823529
aF0.9264705882352942
aF0.8970588235294118
aF0.8970588235294118
aF0.9117647058823529
aF0.5735294117647058
aF0.5
aF0.8970588235294118
aF0.9117647058823529
aF0.5
aF0.8970588235294118
aF0.8970588235294118
aF0.4852941176470588
aF0.5147058823529411
aF0.8970588235294118
aF0.9117647058823529
aF0.8970588235294118
aF0.4852941176470588
aF0.8970588235294118
aF0.9264705882352942
aF0.9264705882352942
aF0.8970588235294118
aF0.9117647058823529
aF0.0
aF0.9264705882352942
aF0.8970588235294118
aF0.9117647058823529
aF0.47058823529411764
assg11
(dp41
g9
(lp42
F0.8970588235294118
aF0.9264705882352942
aF0.9264705882352942
aF0.8970588235294118
aF0.9117647058823529
aF0.9117647058823529
aF0.8970588235294118
aF0.9117647058823529
aF0.9117647058823529
aF0.9117647058823529
aF0.8970588235294118
aF0.8970588235294118
aF0.9117647058823529
aF0.9117647058823529
aF0.8970588235294118
aF0.9117647058823529
aF0.9264705882352942
aF0.9117647058823529
aF0.9117647058823529
aF0.9117647058823529
aF0.9264705882352942
aF0.9117647058823529
aF0.9117647058823529
aF0.4411764705882353
aF0.8970588235294118
aF0.8970588235294118
aF0.9117647058823529
aF0.8970588235294118
aF0.8970588235294118
aF0.8970588235294118
aF0.9117647058823529
aF0.9117647058823529
aF0.9264705882352942
aF0.8970588235294118
aF0.5294117647058824
aF0.25
aF0.5294117647058824
aF0.5147058823529411
aF0.9264705882352942
aF0.8970588235294118
aF0.8970588235294118
aF0.9264705882352942
aF0.9264705882352942
aF0.6323529411764706
aF0.9117647058823529
aF0.9117647058823529
aF0.9411764705882353
aF0.8970588235294118
aF0.9264705882352942
aF0.8970588235294118
assg14
(dp43
g9
(lp44
F0.4411764705882353
aF0.11764705882352941
aF0.23529411764705882
aF0.0
aF0.29411764705882354
aF0.23529411764705882
aF0.08823529411764706
aF0.25
aF0.058823529411764705
aF0.14705882352941177
aF0.0
aF0.14705882352941177
aF0.35294117647058826
aF0.0
aF0.2647058823529412
aF0.0
aF0.14705882352941177
aF0.08823529411764706
aF0.27941176470588236
aF0.0
aF0.04411764705882353
aF0.08823529411764706
aF0.10294117647058823
aF0.058823529411764705
aF0.0
aF0.14705882352941177
aF0.11764705882352941
aF0.0
aF0.11764705882352941
aF0.0
aF0.2647058823529412
aF0.11764705882352941
aF0.23529411764705882
aF0.11764705882352941
aF0.19117647058823528
aF0.0
aF0.22058823529411764
aF0.20588235294117646
aF0.29411764705882354
aF0.0
aF0.2647058823529412
aF0.0
aF0.07352941176470588
aF0.10294117647058823
aF0.04411764705882353
aF0.0
aF0.2647058823529412
aF0.11764705882352941
aF0.2647058823529412
aF0.1323529411764706
assg17
(dp45
g9
(lp46
F0.1323529411764706
aF0.058823529411764705
aF0.17647058823529413
aF0.10294117647058823
aF0.14705882352941177
aF0.16176470588235295
aF0.11764705882352941
aF0.14705882352941177
aF0.08823529411764706
aF0.04411764705882353
aF0.10294117647058823
aF0.08823529411764706
aF0.20588235294117646
aF0.07352941176470588
aF0.14705882352941177
aF0.11764705882352941
aF0.14705882352941177
aF0.08823529411764706
aF0.14705882352941177
aF0.17647058823529413
aF0.16176470588235295
aF0.10294117647058823
aF0.11764705882352941
aF0.08823529411764706
aF0.1323529411764706
aF0.23529411764705882
aF0.16176470588235295
aF0.11764705882352941
aF0.08823529411764706
aF0.1323529411764706
aF0.16176470588235295
aF0.16176470588235295
aF0.19117647058823528
aF0.11764705882352941
aF0.07352941176470588
aF0.08823529411764706
aF0.11764705882352941
aF0.11764705882352941
aF0.20588235294117646
aF0.10294117647058823
aF0.14705882352941177
aF0.1323529411764706
aF0.08823529411764706
aF0.11764705882352941
aF0.1323529411764706
aF0.14705882352941177
aF0.16176470588235295
aF0.10294117647058823
aF0.10294117647058823
aF0.04411764705882353
asssF0.2
(dp47
g7
(dp48
g9
(lp49
F0.9166666666666666
aF0.9
aF0.5833333333333334
aF0.9333333333333333
aF0.9
aF0.9166666666666666
aF0.9333333333333333
aF0.9166666666666666
aF0.9
aF0.8833333333333333
aF0.9166666666666666
aF0.9166666666666666
aF0.8833333333333333
aF0.9166666666666666
aF0.9
aF0.9166666666666666
aF0.9166666666666666
aF0.8833333333333333
aF0.9
aF0.9
aF0.8833333333333333
aF0.9166666666666666
aF0.9
aF0.8833333333333333
aF0.9
aF0.9
aF0.9166666666666666
aF0.9166666666666666
aF0.9
aF0.9166666666666666
aF0.9
aF0.9
aF0.9
aF0.9166666666666666
aF0.9333333333333333
aF0.9
aF0.8833333333333333
aF0.5333333333333333
aF0.9166666666666666
aF0.9166666666666666
aF0.8833333333333333
aF0.8833333333333333
aF0.9
aF0.8833333333333333
aF0.9
aF0.9333333333333333
aF0.9166666666666666
aF0.9166666666666666
aF0.9
aF0.9
assg11
(dp50
g9
(lp51
F0.9166666666666666
aF0.9
aF0.9166666666666666
aF0.9333333333333333
aF0.9
aF0.9166666666666666
aF0.9333333333333333
aF0.9166666666666666
aF0.9
aF0.8833333333333333
aF0.9166666666666666
aF0.9166666666666666
aF0.8833333333333333
aF0.9166666666666666
aF0.9
aF0.9166666666666666
aF0.9166666666666666
aF0.8833333333333333
aF0.9
aF0.9
aF0.8833333333333333
aF0.9166666666666666
aF0.9
aF0.8833333333333333
aF0.9
aF0.9
aF0.9166666666666666
aF0.9166666666666666
aF0.9
aF0.9333333333333333
aF0.9
aF0.9
aF0.9
aF0.9166666666666666
aF0.9333333333333333
aF0.9
aF0.8833333333333333
aF0.9333333333333333
aF0.9166666666666666
aF0.9166666666666666
aF0.18333333333333332
aF0.8833333333333333
aF0.9
aF0.8833333333333333
aF0.9
aF0.9333333333333333
aF0.9166666666666666
aF0.9166666666666666
aF0.9
aF0.9
assg14
(dp52
g9
(lp53
F0.18333333333333332
aF0.38333333333333336
aF0.08333333333333333
aF0.21666666666666667
aF0.1
aF0.23333333333333334
aF0.25
aF0.08333333333333333
aF0.18333333333333332
aF0.13333333333333333
aF0.36666666666666664
aF0.0
aF0.21666666666666667
aF0.23333333333333334
aF0.2
aF0.23333333333333334
aF0.15
aF0.11666666666666667
aF0.26666666666666666
aF0.23333333333333334
aF0.18333333333333332
aF0.26666666666666666
aF0.11666666666666667
aF0.11666666666666667
aF0.16666666666666666
aF0.25
aF0.21666666666666667
aF0.26666666666666666
aF0.11666666666666667
aF0.05
aF0.23333333333333334
aF0.23333333333333334
aF0.0
aF0.11666666666666667
aF0.25
aF0.08333333333333333
aF0.11666666666666667
aF0.05
aF0.25
aF0.2833333333333333
aF0.06666666666666667
aF0.3333333333333333
aF0.1
aF0.1
aF0.1
aF0.25
aF0.03333333333333333
aF0.0
aF0.16666666666666666
aF0.06666666666666667
assg17
(dp54
g9
(lp55
F0.2
aF0.26666666666666666
aF0.2
aF0.21666666666666667
aF0.15
aF0.25
aF0.25
aF0.11666666666666667
aF0.11666666666666667
aF0.11666666666666667
aF0.1
aF0.21666666666666667
aF0.36666666666666664
aF0.18333333333333332
aF0.31666666666666665
aF0.2833333333333333
aF0.2
aF0.11666666666666667
aF0.15
aF0.23333333333333334
aF0.3
aF0.23333333333333334
aF0.16666666666666666
aF0.18333333333333332
aF0.15
aF0.15
aF0.25
aF0.11666666666666667
aF0.2
aF0.13333333333333333
aF0.15
aF0.18333333333333332
aF0.23333333333333334
aF0.2833333333333333
aF0.2
aF0.13333333333333333
aF0.2
aF0.2
aF0.25
aF0.26666666666666666
aF0.15
aF0.13333333333333333
aF0.15
aF0.16666666666666666
aF0.2833333333333333
aF0.15
aF0.15
aF0.23333333333333334
aF0.2833333333333333
aF0.25
asssF0.4
(dp56
g7
(dp57
g9
(lp58
F0.8666666666666667
aF0.9111111111111111
aF0.8666666666666667
aF0.9111111111111111
aF0.5777777777777777
aF0.8666666666666667
aF0.9111111111111111
aF0.8888888888888888
aF0.9333333333333333
aF0.9111111111111111
aF0.8888888888888888
aF0.9333333333333333
aF0.8666666666666667
aF0.9333333333333333
aF0.9333333333333333
aF0.9111111111111111
aF0.9555555555555556
aF0.9333333333333333
aF0.8888888888888888
aF0.9111111111111111
aF0.9333333333333333
aF0.9111111111111111
aF0.9333333333333333
aF0.8888888888888888
aF0.8666666666666667
aF0.8666666666666667
aF0.9111111111111111
aF0.8888888888888888
aF0.9333333333333333
aF0.9111111111111111
aF0.9111111111111111
aF0.8888888888888888
aF0.8666666666666667
aF0.9333333333333333
aF0.9555555555555556
aF0.8888888888888888
aF0.8888888888888888
aF0.9333333333333333
aF0.8666666666666667
aF0.9333333333333333
aF0.9333333333333333
aF0.8666666666666667
aF0.9333333333333333
aF0.8888888888888888
aF0.9333333333333333
aF0.8888888888888888
aF0.8666666666666667
aF0.8888888888888888
aF0.9111111111111111
aF0.9333333333333333
assg11
(dp59
g9
(lp60
F0.8666666666666667
aF0.9111111111111111
aF0.8666666666666667
aF0.9111111111111111
aF0.8888888888888888
aF0.8666666666666667
aF0.9111111111111111
aF0.8888888888888888
aF0.9333333333333333
aF0.9111111111111111
aF0.8888888888888888
aF0.9333333333333333
aF0.8666666666666667
aF0.9333333333333333
aF0.9333333333333333
aF0.9111111111111111
aF0.9555555555555556
aF0.9333333333333333
aF0.8888888888888888
aF0.9111111111111111
aF0.9333333333333333
aF0.9111111111111111
aF0.9333333333333333
aF0.8888888888888888
aF0.8666666666666667
aF0.8666666666666667
aF0.9111111111111111
aF0.8888888888888888
aF0.9333333333333333
aF0.9111111111111111
aF0.9111111111111111
aF0.8888888888888888
aF0.8666666666666667
aF0.9333333333333333
aF0.9555555555555556
aF0.8888888888888888
aF0.8888888888888888
aF0.9333333333333333
aF0.8666666666666667
aF0.9333333333333333
aF0.9333333333333333
aF0.8666666666666667
aF0.9333333333333333
aF0.8888888888888888
aF0.9333333333333333
aF0.8888888888888888
aF0.8666666666666667
aF0.8888888888888888
aF0.9111111111111111
aF0.9333333333333333
assg14
(dp61
g9
(lp62
F0.37777777777777777
aF0.13333333333333333
aF0.044444444444444446
aF0.15555555555555556
aF0.2222222222222222
aF0.35555555555555557
aF0.4222222222222222
aF0.35555555555555557
aF0.17777777777777778
aF0.37777777777777777
aF0.4
aF0.37777777777777777
aF0.1111111111111111
aF0.08888888888888889
aF0.24444444444444444
aF0.15555555555555556
aF0.3333333333333333
aF0.4666666666666667
aF0.1111111111111111
aF0.2
aF0.0
aF0.3111111111111111
aF0.1111111111111111
aF0.2
aF0.3111111111111111
aF0.35555555555555557
aF0.17777777777777778
aF0.15555555555555556
aF0.24444444444444444
aF0.1111111111111111
aF0.17777777777777778
aF0.15555555555555556
aF0.17777777777777778
aF0.24444444444444444
aF0.28888888888888886
aF0.28888888888888886
aF0.4444444444444444
aF0.3333333333333333
aF0.0
aF0.24444444444444444
aF0.2
aF0.5555555555555556
aF0.15555555555555556
aF0.28888888888888886
aF0.24444444444444444
aF0.28888888888888886
aF0.28888888888888886
aF0.1111111111111111
aF0.2222222222222222
aF0.3111111111111111
assg17
(dp63
g9
(lp64
F0.37777777777777777
aF0.24444444444444444
aF0.044444444444444446
aF0.26666666666666666
aF0.2222222222222222
aF0.3111111111111111
aF0.37777777777777777
aF0.24444444444444444
aF0.2222222222222222
aF0.4
aF0.37777777777777777
aF0.4
aF0.1111111111111111
aF0.1111111111111111
aF0.15555555555555556
aF0.13333333333333333
aF0.3111111111111111
aF0.08888888888888889
aF0.0
aF0.2222222222222222
aF0.0
aF0.3111111111111111
aF0.1111111111111111
aF0.2
aF0.17777777777777778
aF0.28888888888888886
aF0.17777777777777778
aF0.2
aF0.1111111111111111
aF0.1111111111111111
aF0.2222222222222222
aF0.1111111111111111
aF0.3111111111111111
aF0.2
aF0.1111111111111111
aF0.4444444444444444
aF0.4
aF0.28888888888888886
aF0.0
aF0.24444444444444444
aF0.06666666666666667
aF0.15555555555555556
aF0.08888888888888889
aF0.08888888888888889
aF0.24444444444444444
aF0.28888888888888886
aF0.3111111111111111
aF0.1111111111111111
aF0.2222222222222222
aF0.28888888888888886
asssF0.15
(dp65
g7
(dp66
g9
(lp67
F0.359375
aF0.890625
aF0.46875
aF0.9375
aF0.890625
aF0.890625
aF0.90625
aF0.890625
aF0.90625
aF0.921875
aF0.390625
aF0.90625
aF0.4375
aF0.890625
aF0.9375
aF0.5
aF0.9375
aF0.4375
aF0.890625
aF0.90625
aF0.90625
aF0.90625
aF0.90625
aF0.90625
aF0.90625
aF0.90625
aF0.890625
aF0.9375
aF0.921875
aF0.90625
aF0.90625
aF0.921875
aF0.890625
aF0.484375
aF0.890625
aF0.890625
aF0.921875
aF0.5
aF0.90625
aF0.90625
aF0.90625
aF0.390625
aF0.890625
aF0.921875
aF0.890625
aF0.90625
aF0.953125
aF0.890625
aF0.9375
aF0.515625
assg11
(dp68
g9
(lp69
F0.90625
aF0.890625
aF0.890625
aF0.9375
aF0.890625
aF0.890625
aF0.921875
aF0.890625
aF0.90625
aF0.921875
aF0.921875
aF0.90625
aF0.890625
aF0.890625
aF0.9375
aF0.90625
aF0.9375
aF0.921875
aF0.90625
aF0.90625
aF0.90625
aF0.90625
aF0.90625
aF0.90625
aF0.90625
aF0.90625
aF0.890625
aF0.9375
aF0.921875
aF0.90625
aF0.90625
aF0.921875
aF0.890625
aF0.90625
aF0.890625
aF0.890625
aF0.921875
aF0.890625
aF0.90625
aF0.90625
aF0.90625
aF0.890625
aF0.890625
aF0.9375
aF0.890625
aF0.90625
aF0.953125
aF0.890625
aF0.9375
aF0.890625
assg14
(dp70
g9
(lp71
F0.0625
aF0.203125
aF0.3125
aF0.078125
aF0.140625
aF0.359375
aF0.203125
aF0.265625
aF0.09375
aF0.234375
aF0.921875
aF0.140625
aF0.734375
aF0.21875
aF0.3125
aF0.40625
aF0.0
aF0.328125
aF0.1875
aF0.09375
aF0.40625
aF0.09375
aF0.203125
aF0.203125
aF0.234375
aF0.0
aF0.0
aF0.234375
aF0.21875
aF0.28125
aF0.125
aF0.109375
aF0.078125
aF0.25
aF0.15625
aF0.09375
aF0.265625
aF0.265625
aF0.28125
aF0.03125
aF0.234375
aF0.25
aF0.0
aF0.25
aF0.046875
aF0.171875
aF0.25
aF0.3125
aF0.0625
aF0.28125
assg17
(dp72
g9
(lp73
F0.15625
aF0.109375
aF0.25
aF0.125
aF0.171875
aF0.09375
aF0.125
aF0.171875
aF0.125
aF0.15625
aF0.140625
aF0.171875
aF0.140625
aF0.171875
aF0.140625
aF0.125
aF0.109375
aF0.171875
aF0.109375
aF0.15625
aF0.21875
aF0.078125
aF0.09375
aF0.171875
aF0.21875
aF0.21875
aF0.078125
aF0.09375
aF0.1875
aF0.125
aF0.140625
aF0.1875
aF0.0625
aF0.171875
aF0.15625
aF0.140625
aF0.171875
aF0.03125
aF0.25
aF0.15625
aF0.171875
aF0.15625
aF0.109375
aF0.171875
aF0.21875
aF0.125
aF0.15625
aF0.15625
aF0.125
aF0.140625
asssF0.3
(dp74
g7
(dp75
g9
(lp76
F0.9245283018867925
aF0.9056603773584906
aF0.9056603773584906
aF0.9056603773584906
aF0.9245283018867925
aF0.9056603773584906
aF0.9056603773584906
aF0.9056603773584906
aF0.8679245283018868
aF0.9056603773584906
aF0.9433962264150944
aF0.8867924528301887
aF0.9056603773584906
aF0.9056603773584906
aF0.8867924528301887
aF0.9245283018867925
aF0.8867924528301887
aF0.9433962264150944
aF0.9433962264150944
aF0.9056603773584906
aF0.9433962264150944
aF0.9056603773584906
aF0.8867924528301887
aF0.5283018867924528
aF0.9245283018867925
aF0.9245283018867925
aF0.9245283018867925
aF0.8679245283018868
aF0.8867924528301887
aF0.9056603773584906
aF0.9433962264150944
aF0.9245283018867925
aF0.8867924528301887
aF0.8679245283018868
aF0.8867924528301887
aF0.8679245283018868
aF0.4528301886792453
aF0.9245283018867925
aF0.9056603773584906
aF0.8867924528301887
aF0.9245283018867925
aF0.9056603773584906
aF0.9056603773584906
aF0.9245283018867925
aF0.9056603773584906
aF0.8867924528301887
aF0.9056603773584906
aF0.9245283018867925
aF0.8867924528301887
aF0.8867924528301887
assg11
(dp77
g9
(lp78
F0.9245283018867925
aF0.9056603773584906
aF0.9056603773584906
aF0.9056603773584906
aF0.9245283018867925
aF0.9056603773584906
aF0.9056603773584906
aF0.9056603773584906
aF0.8679245283018868
aF0.9056603773584906
aF0.9433962264150944
aF0.8867924528301887
aF0.9056603773584906
aF0.9056603773584906
aF0.8867924528301887
aF0.9245283018867925
aF0.8867924528301887
aF0.9433962264150944
aF0.9433962264150944
aF0.9056603773584906
aF0.9433962264150944
aF0.9056603773584906
aF0.8867924528301887
aF0.8867924528301887
aF0.9245283018867925
aF0.9245283018867925
aF0.9245283018867925
aF0.8679245283018868
aF0.5283018867924528
aF0.9056603773584906
aF0.9433962264150944
aF0.9245283018867925
aF0.8867924528301887
aF0.8679245283018868
aF0.8867924528301887
aF0.8679245283018868
aF0.9245283018867925
aF0.9245283018867925
aF0.9056603773584906
aF0.8867924528301887
aF0.9245283018867925
aF0.9056603773584906
aF0.9056603773584906
aF0.9245283018867925
aF0.9056603773584906
aF0.8867924528301887
aF0.9056603773584906
aF0.9245283018867925
aF0.8867924528301887
aF0.8867924528301887
assg14
(dp79
g9
(lp80
F0.09433962264150944
aF0.24528301886792453
aF0.22641509433962265
aF0.37735849056603776
aF0.2830188679245283
aF0.3018867924528302
aF0.0
aF0.20754716981132076
aF0.5471698113207547
aF0.32075471698113206
aF0.18867924528301888
aF0.11320754716981132
aF0.1320754716981132
aF0.07547169811320754
aF0.11320754716981132
aF0.2830188679245283
aF0.22641509433962265
aF0.11320754716981132
aF0.09433962264150944
aF0.3584905660377358
aF0.2830188679245283
aF0.2641509433962264
aF0.2830188679245283
aF0.1320754716981132
aF0.20754716981132076
aF0.16981132075471697
aF0.24528301886792453
aF0.24528301886792453
aF0.1320754716981132
aF0.18867924528301888
aF0.1320754716981132
aF0.1320754716981132
aF0.11320754716981132
aF0.5660377358490566
aF0.32075471698113206
aF0.24528301886792453
aF0.07547169811320754
aF0.5660377358490566
aF0.09433962264150944
aF0.3584905660377358
aF0.20754716981132076
aF0.39622641509433965
aF0.0
aF0.22641509433962265
aF0.3584905660377358
aF0.3018867924528302
aF0.1509433962264151
aF0.22641509433962265
aF0.24528301886792453
aF0.1320754716981132
assg17
(dp81
g9
(lp82
F0.16981132075471697
aF0.18867924528301888
aF0.22641509433962265
aF0.2641509433962264
aF0.22641509433962265
aF0.2641509433962264
aF0.11320754716981132
aF0.18867924528301888
aF0.22641509433962265
aF0.3018867924528302
aF0.0
aF0.1320754716981132
aF0.11320754716981132
aF0.3018867924528302
aF0.16981132075471697
aF0.24528301886792453
aF0.22641509433962265
aF0.11320754716981132
aF0.18867924528301888
aF0.39622641509433965
aF0.32075471698113206
aF0.2830188679245283
aF0.22641509433962265
aF0.22641509433962265
aF0.2641509433962264
aF0.1509433962264151
aF0.3018867924528302
aF0.18867924528301888
aF0.1320754716981132
aF0.20754716981132076
aF0.20754716981132076
aF0.1509433962264151
aF0.16981132075471697
aF0.33962264150943394
aF0.22641509433962265
aF0.18867924528301888
aF0.16981132075471697
aF0.33962264150943394
aF0.2641509433962264
aF0.16981132075471697
aF0.16981132075471697
aF0.2830188679245283
aF0.2641509433962264
aF0.2641509433962264
aF0.24528301886792453
aF0.24528301886792453
aF0.18867924528301888
aF0.32075471698113206
aF0.16981132075471697
aF0.22641509433962265
asssF0.05
(dp83
g7
(dp84
g9
(lp85
F0.4861111111111111
aF0.9027777777777778
aF0.9027777777777778
aF0.9027777777777778
aF0.9166666666666666
aF0.9027777777777778
aF0.9027777777777778
aF0.9027777777777778
aF0.5277777777777778
aF0.375
aF0.3888888888888889
aF0.3611111111111111
aF0.4583333333333333
aF0.9027777777777778
aF0.9027777777777778
aF0.9027777777777778
aF0.4722222222222222
aF0.9305555555555556
aF0.9166666666666666
aF0.9166666666666666
aF0.9027777777777778
aF0.9027777777777778
aF0.9166666666666666
aF0.9027777777777778
aF0.9027777777777778
aF0.4583333333333333
aF0.5138888888888888
aF0.9027777777777778
aF0.9027777777777778
aF0.5833333333333334
aF0.9027777777777778
aF0.5
aF0.9166666666666666
aF0.375
aF0.5138888888888888
aF0.9027777777777778
aF0.5
aF0.9027777777777778
aF0.9166666666666666
aF0.9027777777777778
aF0.4027777777777778
aF0.9166666666666666
aF0.9027777777777778
aF0.9166666666666666
aF0.9166666666666666
aF0.4861111111111111
aF0.9027777777777778
aF0.9027777777777778
aF0.9027777777777778
aF0.5277777777777778
assg11
(dp86
g9
(lp87
F0.9027777777777778
aF0.9027777777777778
aF0.9027777777777778
aF0.9027777777777778
aF0.9166666666666666
aF0.9027777777777778
aF0.9027777777777778
aF0.9027777777777778
aF0.2638888888888889
aF0.9027777777777778
aF0.9166666666666666
aF0.9027777777777778
aF0.4583333333333333
aF0.2777777777777778
aF0.9305555555555556
aF0.2361111111111111
aF0.9027777777777778
aF0.0
aF0.0
aF0.0
aF0.5694444444444444
aF0.9027777777777778
aF0.9166666666666666
aF0.9166666666666666
aF0.4027777777777778
aF0.4722222222222222
aF0.9027777777777778
aF0.9027777777777778
aF0.0
aF0.9027777777777778
aF0.9027777777777778
aF0.0
aF0.041666666666666664
aF0.3611111111111111
aF0.3611111111111111
aF0.9027777777777778
aF0.0
aF0.9027777777777778
aF0.0
aF0.9027777777777778
aF0.4722222222222222
aF0.9305555555555556
aF0.9305555555555556
aF0.0
aF0.25
aF0.4027777777777778
aF0.4444444444444444
aF0.9027777777777778
aF0.5555555555555556
aF0.9166666666666666
assg14
(dp88
g9
(lp89
F0.0
aF0.0
aF0.2916666666666667
aF0.0
aF0.0
aF0.0
aF0.125
aF0.041666666666666664
aF0.1527777777777778
aF0.06944444444444445
aF0.041666666666666664
aF0.0
aF0.18055555555555555
aF0.125
aF0.2638888888888889
aF0.06944444444444445
aF0.1111111111111111
aF0.0
aF0.0
aF0.0
aF0.09722222222222222
aF0.0
aF0.1388888888888889
aF0.1388888888888889
aF0.06944444444444445
aF0.4305555555555556
aF0.0
aF0.0
aF0.05555555555555555
aF0.2222222222222222
aF0.027777777777777776
aF0.0
aF0.2222222222222222
aF0.125
aF0.3611111111111111
aF0.9027777777777778
aF0.0
aF0.1388888888888889
aF0.0
aF0.0
aF0.18055555555555555
aF0.09722222222222222
aF0.2638888888888889
aF0.0
aF0.25
aF0.18055555555555555
aF0.16666666666666666
aF0.2638888888888889
aF0.2222222222222222
aF0.0
assg17
(dp90
g9
(lp91
F0.09722222222222222
aF0.1388888888888889
aF0.09722222222222222
aF0.09722222222222222
aF0.027777777777777776
aF0.1111111111111111
aF0.1388888888888889
aF0.1111111111111111
aF0.05555555555555555
aF0.1388888888888889
aF0.06944444444444445
aF0.041666666666666664
aF0.08333333333333333
aF0.1527777777777778
aF0.08333333333333333
aF0.125
aF0.1111111111111111
aF0.1111111111111111
aF0.125
aF0.027777777777777776
aF0.06944444444444445
aF0.18055555555555555
aF0.1111111111111111
aF0.18055555555555555
aF0.1527777777777778
aF0.1111111111111111
aF0.06944444444444445
aF0.041666666666666664
aF0.041666666666666664
aF0.125
aF0.09722222222222222
aF0.1111111111111111
aF0.1388888888888889
aF0.013888888888888888
aF0.06944444444444445
aF0.1111111111111111
aF0.09722222222222222
aF0.125
aF0.1388888888888889
aF0.1388888888888889
aF0.1388888888888889
aF0.20833333333333334
aF0.20833333333333334
aF0.1388888888888889
aF0.1527777777777778
aF0.1388888888888889
aF0.06944444444444445
aF0.09722222222222222
aF0.2222222222222222
aF0.18055555555555555
asssF0.45
(dp92
g7
(dp93
g9
(lp94
F0.9285714285714286
aF0.8809523809523809
aF0.8809523809523809
aF0.9285714285714286
aF0.8809523809523809
aF0.8571428571428571
aF0.9285714285714286
aF0.9047619047619048
aF0.8333333333333334
aF0.9047619047619048
aF0.9047619047619048
aF0.9047619047619048
aF0.9285714285714286
aF0.8809523809523809
aF0.9285714285714286
aF0.9047619047619048
aF0.9523809523809523
aF0.8571428571428571
aF0.9523809523809523
aF0.8809523809523809
aF0.9285714285714286
aF0.8809523809523809
aF0.9285714285714286
aF0.9047619047619048
aF0.9047619047619048
aF0.9285714285714286
aF0.9047619047619048
aF0.9285714285714286
aF0.9285714285714286
aF0.9047619047619048
aF0.9761904761904762
aF0.8809523809523809
aF0.9047619047619048
aF0.9285714285714286
aF0.9285714285714286
aF0.9285714285714286
aF0.9047619047619048
aF0.8809523809523809
aF0.8809523809523809
aF0.9047619047619048
aF0.9285714285714286
aF0.8571428571428571
aF0.9047619047619048
aF0.8809523809523809
aF0.9761904761904762
aF0.9761904761904762
aF0.9047619047619048
aF0.9047619047619048
aF0.8809523809523809
aF0.9285714285714286
assg11
(dp95
g9
(lp96
F0.9285714285714286
aF0.8809523809523809
aF0.8809523809523809
aF0.9285714285714286
aF0.8809523809523809
aF0.8571428571428571
aF0.9285714285714286
aF0.9047619047619048
aF0.8333333333333334
aF0.9047619047619048
aF0.9047619047619048
aF0.9047619047619048
aF0.9285714285714286
aF0.8809523809523809
aF0.9285714285714286
aF0.9047619047619048
aF0.9523809523809523
aF0.8571428571428571
aF0.9523809523809523
aF0.8809523809523809
aF0.9285714285714286
aF0.8809523809523809
aF0.9285714285714286
aF0.9047619047619048
aF0.9047619047619048
aF0.9285714285714286
aF0.9047619047619048
aF0.9285714285714286
aF0.9285714285714286
aF0.9047619047619048
aF0.9761904761904762
aF0.8809523809523809
aF0.9047619047619048
aF0.9285714285714286
aF0.9285714285714286
aF0.9285714285714286
aF0.9047619047619048
aF0.8809523809523809
aF0.8809523809523809
aF0.9047619047619048
aF0.9285714285714286
aF0.8571428571428571
aF0.9047619047619048
aF0.8809523809523809
aF0.9761904761904762
aF0.9761904761904762
aF0.9047619047619048
aF0.9047619047619048
aF0.8809523809523809
aF0.9285714285714286
assg14
(dp97
g9
(lp98
F0.30952380952380953
aF0.11904761904761904
aF0.19047619047619047
aF0.30952380952380953
aF0.5238095238095238
aF0.23809523809523808
aF0.3333333333333333
aF0.11904761904761904
aF0.07142857142857142
aF0.14285714285714285
aF0.16666666666666666
aF0.2619047619047619
aF0.19047619047619047
aF0.35714285714285715
aF0.19047619047619047
aF0.5
aF0.11904761904761904
aF0.21428571428571427
aF0.09523809523809523
aF0.23809523809523808
aF0.19047619047619047
aF0.23809523809523808
aF0.11904761904761904
aF0.2619047619047619
aF0.5714285714285714
aF0.0
aF0.2857142857142857
aF0.35714285714285715
aF0.11904761904761904
aF0.14285714285714285
aF0.07142857142857142
aF0.14285714285714285
aF0.30952380952380953
aF0.09523809523809523
aF0.23809523809523808
aF0.11904761904761904
aF0.16666666666666666
aF0.35714285714285715
aF0.2619047619047619
aF0.21428571428571427
aF0.19047619047619047
aF0.4523809523809524
aF0.23809523809523808
aF0.11904761904761904
aF0.19047619047619047
aF0.2857142857142857
aF0.07142857142857142
aF0.11904761904761904
aF0.21428571428571427
aF0.42857142857142855
assg17
(dp99
g9
(lp100
F0.2857142857142857
aF0.0
aF0.47619047619047616
aF0.35714285714285715
aF0.40476190476190477
aF0.7619047619047619
aF0.40476190476190477
aF0.0
aF0.14285714285714285
aF0.11904761904761904
aF0.2619047619047619
aF0.23809523809523808
aF0.2619047619047619
aF0.38095238095238093
aF0.19047619047619047
aF0.42857142857142855
aF0.11904761904761904
aF0.23809523809523808
aF0.07142857142857142
aF0.35714285714285715
aF0.3333333333333333
aF0.16666666666666666
aF0.09523809523809523
aF0.19047619047619047
aF0.5476190476190477
aF0.0
aF0.0
aF0.047619047619047616
aF0.11904761904761904
aF0.0
aF0.0
aF0.5714285714285714
aF0.35714285714285715
aF0.0
aF0.19047619047619047
aF0.11904761904761904
aF0.19047619047619047
aF0.38095238095238093
aF0.38095238095238093
aF0.16666666666666666
aF0.09523809523809523
aF0.6904761904761905
aF0.0
aF0.23809523809523808
aF0.09523809523809523
aF0.16666666666666666
aF0.07142857142857142
aF0.2857142857142857
aF0.11904761904761904
aF0.4523809523809524
asssF0.35
(dp101
g7
(dp102
g9
(lp103
F0.8775510204081632
aF0.8979591836734694
aF0.8979591836734694
aF0.8775510204081632
aF0.8979591836734694
aF0.8775510204081632
aF0.8979591836734694
aF0.9183673469387755
aF0.8979591836734694
aF0.9183673469387755
aF0.8979591836734694
aF0.9183673469387755
aF0.8571428571428571
aF0.8979591836734694
aF0.8979591836734694
aF0.8979591836734694
aF0.8775510204081632
aF0.9387755102040817
aF0.8775510204081632
aF0.8979591836734694
aF0.9183673469387755
aF0.9387755102040817
aF0.8979591836734694
aF0.8979591836734694
aF0.9387755102040817
aF0.9387755102040817
aF0.8979591836734694
aF0.8979591836734694
aF0.9387755102040817
aF0.8979591836734694
aF0.8775510204081632
aF0.8775510204081632
aF0.9183673469387755
aF0.8979591836734694
aF0.8571428571428571
aF0.9183673469387755
aF0.8775510204081632
aF0.8979591836734694
aF0.9183673469387755
aF0.8979591836734694
aF0.9387755102040817
aF0.5102040816326531
aF0.9387755102040817
aF0.8775510204081632
aF0.9183673469387755
aF0.8979591836734694
aF0.9183673469387755
aF0.9387755102040817
aF0.9183673469387755
aF0.8979591836734694
assg11
(dp104
g9
(lp105
F0.8775510204081632
aF0.8979591836734694
aF0.8979591836734694
aF0.8775510204081632
aF0.8979591836734694
aF0.8775510204081632
aF0.8979591836734694
aF0.9183673469387755
aF0.8979591836734694
aF0.9183673469387755
aF0.8979591836734694
aF0.9183673469387755
aF0.8571428571428571
aF0.8979591836734694
aF0.8979591836734694
aF0.8979591836734694
aF0.8775510204081632
aF0.9387755102040817
aF0.8775510204081632
aF0.8979591836734694
aF0.9183673469387755
aF0.9387755102040817
aF0.8979591836734694
aF0.8979591836734694
aF0.9387755102040817
aF0.9387755102040817
aF0.8979591836734694
aF0.8979591836734694
aF0.9387755102040817
aF0.8979591836734694
aF0.8775510204081632
aF0.8775510204081632
aF0.9183673469387755
aF0.8979591836734694
aF0.8571428571428571
aF0.9183673469387755
aF0.8775510204081632
aF0.8979591836734694
aF0.9183673469387755
aF0.8979591836734694
aF0.9387755102040817
aF0.8571428571428571
aF0.9387755102040817
aF0.8775510204081632
aF0.9183673469387755
aF0.8979591836734694
aF0.9183673469387755
aF0.9387755102040817
aF0.9183673469387755
aF0.8979591836734694
assg14
(dp106
g9
(lp107
F0.0
aF0.16326530612244897
aF0.12244897959183673
aF0.08163265306122448
aF0.30612244897959184
aF0.12244897959183673
aF0.12244897959183673
aF0.20408163265306123
aF0.1836734693877551
aF0.22448979591836735
aF0.3673469387755102
aF0.30612244897959184
aF0.3673469387755102
aF0.14285714285714285
aF0.5102040816326531
aF0.04081632653061224
aF0.42857142857142855
aF0.16326530612244897
aF0.32653061224489793
aF0.0
aF0.20408163265306123
aF0.08163265306122448
aF0.12244897959183673
aF0.2653061224489796
aF0.10204081632653061
aF0.10204081632653061
aF0.08163265306122448
aF0.12244897959183673
aF0.20408163265306123
aF0.3469387755102041
aF0.32653061224489793
aF0.1836734693877551
aF0.30612244897959184
aF0.5102040816326531
aF0.30612244897959184
aF0.20408163265306123
aF0.2857142857142857
aF0.4897959183673469
aF0.16326530612244897
aF0.16326530612244897
aF0.12244897959183673
aF0.46938775510204084
aF0.40816326530612246
aF0.20408163265306123
aF0.22448979591836735
aF0.2653061224489796
aF0.32653061224489793
aF0.32653061224489793
aF0.061224489795918366
aF0.16326530612244897
assg17
(dp108
g9
(lp109
F0.0
aF0.2653061224489796
aF0.12244897959183673
aF0.08163265306122448
aF0.2857142857142857
aF0.30612244897959184
aF0.12244897959183673
aF0.20408163265306123
aF0.12244897959183673
aF0.20408163265306123
aF0.2653061224489796
aF0.32653061224489793
aF0.3877551020408163
aF0.12244897959183673
aF0.2653061224489796
aF0.04081632653061224
aF0.24489795918367346
aF0.12244897959183673
aF0.16326530612244897
aF0.0
aF0.20408163265306123
aF0.08163265306122448
aF0.10204081632653061
aF0.1836734693877551
aF0.10204081632653061
aF0.08163265306122448
aF0.08163265306122448
aF0.32653061224489793
aF0.10204081632653061
aF0.32653061224489793
aF0.30612244897959184
aF0.12244897959183673
aF0.32653061224489793
aF0.2653061224489796
aF0.20408163265306123
aF0.20408163265306123
aF0.16326530612244897
aF0.20408163265306123
aF0.22448979591836735
aF0.12244897959183673
aF0.12244897959183673
aF0.42857142857142855
aF0.2653061224489796
aF0.22448979591836735
aF0.16326530612244897
aF0.08163265306122448
aF0.22448979591836735
aF0.30612244897959184
aF0.061224489795918366
aF0.16326530612244897
asssF0.55
(dp110
g7
(dp111
g9
(lp112
F0.9411764705882353
aF0.8529411764705882
aF0.9705882352941176
aF0.8235294117647058
aF0.9411764705882353
aF0.8823529411764706
aF0.9411764705882353
aF0.9411764705882353
aF0.9411764705882353
aF0.8823529411764706
aF0.8529411764705882
aF0.9117647058823529
aF0.9411764705882353
aF0.8823529411764706
aF0.9411764705882353
aF0.9117647058823529
aF0.8529411764705882
aF0.8823529411764706
aF0.8529411764705882
aF0.9411764705882353
aF0.9117647058823529
aF0.9411764705882353
aF0.9705882352941176
aF0.9117647058823529
aF0.8823529411764706
aF0.9705882352941176
aF0.9411764705882353
aF0.9117647058823529
aF0.9411764705882353
aF0.9117647058823529
aF0.8823529411764706
aF0.9411764705882353
aF0.9705882352941176
aF0.9117647058823529
aF0.9117647058823529
aF0.9117647058823529
aF0.9117647058823529
aF0.9117647058823529
aF0.9117647058823529
aF0.8823529411764706
aF0.9411764705882353
aF0.9411764705882353
aF0.9705882352941176
aF0.8823529411764706
aF0.9117647058823529
aF0.8823529411764706
aF0.7941176470588235
aF0.8823529411764706
aF0.9117647058823529
aF0.9117647058823529
assg11
(dp113
g9
(lp114
F0.9411764705882353
aF0.8529411764705882
aF0.9705882352941176
aF0.8235294117647058
aF0.9411764705882353
aF0.8823529411764706
aF0.9411764705882353
aF0.9411764705882353
aF0.9411764705882353
aF0.8823529411764706
aF0.8529411764705882
aF0.9117647058823529
aF0.9411764705882353
aF0.8823529411764706
aF0.9411764705882353
aF0.9117647058823529
aF0.8529411764705882
aF0.8823529411764706
aF0.8529411764705882
aF0.9411764705882353
aF0.9117647058823529
aF0.9411764705882353
aF0.9705882352941176
aF0.9117647058823529
aF0.8823529411764706
aF0.9705882352941176
aF0.9411764705882353
aF0.9117647058823529
aF0.9411764705882353
aF0.9117647058823529
aF0.8823529411764706
aF0.9411764705882353
aF0.9705882352941176
aF0.9117647058823529
aF0.9117647058823529
aF0.9117647058823529
aF0.9117647058823529
aF0.9117647058823529
aF0.9117647058823529
aF0.8823529411764706
aF0.9411764705882353
aF0.9411764705882353
aF0.9705882352941176
aF0.8823529411764706
aF0.9117647058823529
aF0.8823529411764706
aF0.7941176470588235
aF0.8823529411764706
aF0.9117647058823529
aF0.9117647058823529
assg14
(dp115
g9
(lp116
F0.11764705882352941
aF0.058823529411764705
aF0.29411764705882354
aF0.3235294117647059
aF0.29411764705882354
aF0.47058823529411764
aF0.2647058823529412
aF0.2647058823529412
aF0.35294117647058826
aF0.14705882352941177
aF0.4411764705882353
aF0.3235294117647059
aF0.029411764705882353
aF0.3235294117647059
aF0.17647058823529413
aF0.08823529411764706
aF0.14705882352941177
aF0.29411764705882354
aF0.4411764705882353
aF0.3235294117647059
aF0.4411764705882353
aF0.29411764705882354
aF0.23529411764705882
aF0.29411764705882354
aF0.2647058823529412
aF0.5
aF0.11764705882352941
aF0.23529411764705882
aF0.2647058823529412
aF0.2647058823529412
aF0.08823529411764706
aF0.2647058823529412
aF0.17647058823529413
aF0.35294117647058826
aF0.11764705882352941
aF0.20588235294117646
aF0.2647058823529412
aF0.14705882352941177
aF0.3235294117647059
aF0.20588235294117646
aF0.29411764705882354
aF0.4411764705882353
aF0.11764705882352941
aF0.14705882352941177
aF0.29411764705882354
aF0.029411764705882353
aF0.38235294117647056
aF0.14705882352941177
aF0.11764705882352941
aF0.5294117647058824
assg17
(dp117
g9
(lp118
F0.6764705882352942
aF0.8529411764705882
aF0.9705882352941176
aF0.5882352941176471
aF0.20588235294117646
aF0.8823529411764706
aF0.9411764705882353
aF0.9411764705882353
aF0.9705882352941176
aF0.5588235294117647
aF0.8823529411764706
aF0.9411764705882353
aF0.23529411764705882
aF0.9117647058823529
aF0.7941176470588235
aF0.5294117647058824
aF0.8529411764705882
aF0.5588235294117647
aF0.8529411764705882
aF0.9411764705882353
aF0.23529411764705882
aF0.5294117647058824
aF0.47058823529411764
aF0.9117647058823529
aF0.35294117647058826
aF0.9705882352941176
aF0.9411764705882353
aF0.5588235294117647
aF0.4411764705882353
aF0.6764705882352942
aF0.8823529411764706
aF0.9411764705882353
aF0.9705882352941176
aF0.9117647058823529
aF0.5
aF0.9117647058823529
aF0.9117647058823529
aF0.9117647058823529
aF0.9411764705882353
aF0.4117647058823529
aF0.9411764705882353
aF0.9411764705882353
aF0.47058823529411764
aF0.2647058823529412
aF0.9411764705882353
aF0.3235294117647059
aF0.7941176470588235
aF0.4411764705882353
aF0.7941176470588235
aF0.9117647058823529
asssF0.65
(dp119
g7
(dp120
g9
(lp121
F1.0
aF1.0
aF0.8888888888888888
aF0.9629629629629629
aF0.9629629629629629
aF0.8888888888888888
aF0.8518518518518519
aF0.8888888888888888
aF0.8888888888888888
aF0.8888888888888888
aF0.8888888888888888
aF0.8888888888888888
aF0.9629629629629629
aF0.9259259259259259
aF0.9259259259259259
aF0.9259259259259259
aF1.0
aF0.9259259259259259
aF0.8888888888888888
aF0.9259259259259259
aF0.8888888888888888
aF0.8518518518518519
aF0.9259259259259259
aF0.9259259259259259
aF0.9629629629629629
aF0.8888888888888888
aF0.8518518518518519
aF0.8888888888888888
aF0.8518518518518519
aF0.9259259259259259
aF0.9629629629629629
aF0.8518518518518519
aF0.9629629629629629
aF0.9259259259259259
aF0.8888888888888888
aF0.9259259259259259
aF0.8518518518518519
aF0.9629629629629629
aF0.9259259259259259
aF0.8518518518518519
aF0.8888888888888888
aF0.8888888888888888
aF0.8888888888888888
aF0.9629629629629629
aF0.8888888888888888
aF0.9629629629629629
aF0.7777777777777778
aF0.8888888888888888
aF0.9629629629629629
aF0.9259259259259259
assg11
(dp122
g9
(lp123
F1.0
aF1.0
aF0.8888888888888888
aF0.9629629629629629
aF0.9629629629629629
aF0.8888888888888888
aF0.8518518518518519
aF0.8888888888888888
aF0.8888888888888888
aF0.8888888888888888
aF0.8888888888888888
aF0.8888888888888888
aF0.9629629629629629
aF0.9259259259259259
aF0.9259259259259259
aF0.9259259259259259
aF1.0
aF0.9259259259259259
aF0.8888888888888888
aF0.9259259259259259
aF0.8888888888888888
aF0.8518518518518519
aF0.9259259259259259
aF0.9259259259259259
aF0.9629629629629629
aF0.8888888888888888
aF0.8518518518518519
aF0.8888888888888888
aF0.8518518518518519
aF0.9259259259259259
aF0.9629629629629629
aF0.8518518518518519
aF0.9629629629629629
aF0.9259259259259259
aF0.8888888888888888
aF0.9259259259259259
aF0.8518518518518519
aF0.9629629629629629
aF0.9259259259259259
aF0.8518518518518519
aF0.8888888888888888
aF0.8888888888888888
aF0.8888888888888888
aF0.9629629629629629
aF0.8888888888888888
aF0.9629629629629629
aF0.7777777777777778
aF0.8888888888888888
aF0.9629629629629629
aF0.9259259259259259
assg14
(dp124
g9
(lp125
F0.25925925925925924
aF0.4074074074074074
aF0.2222222222222222
aF0.037037037037037035
aF0.25925925925925924
aF0.25925925925925924
aF0.25925925925925924
aF0.25925925925925924
aF0.2222222222222222
aF0.2962962962962963
aF0.2962962962962963
aF0.1111111111111111
aF0.2962962962962963
aF0.37037037037037035
aF0.37037037037037035
aF0.1111111111111111
aF0.2962962962962963
aF0.4074074074074074
aF0.4074074074074074
aF0.5555555555555556
aF0.2962962962962963
aF0.07407407407407407
aF0.25925925925925924
aF0.3333333333333333
aF0.3333333333333333
aF0.2222222222222222
aF0.1111111111111111
aF0.2222222222222222
aF0.2962962962962963
aF0.25925925925925924
aF0.2962962962962963
aF0.2962962962962963
aF0.37037037037037035
aF0.2222222222222222
aF0.2222222222222222
aF0.4074074074074074
aF0.48148148148148145
aF0.4074074074074074
aF0.37037037037037035
aF0.14814814814814814
aF0.2962962962962963
aF0.07407407407407407
aF0.25925925925925924
aF0.1111111111111111
aF0.2962962962962963
aF0.14814814814814814
aF0.37037037037037035
aF0.2962962962962963
aF0.37037037037037035
aF0.2222222222222222
assg17
(dp126
g9
(lp127
F1.0
aF1.0
aF0.4074074074074074
aF0.1111111111111111
aF0.9629629629629629
aF0.8888888888888888
aF0.8518518518518519
aF0.8888888888888888
aF0.8888888888888888
aF0.8888888888888888
aF0.9259259259259259
aF0.8888888888888888
aF0.9629629629629629
aF0.9259259259259259
aF0.9259259259259259
aF0.9629629629629629
aF1.0
aF0.9259259259259259
aF0.8888888888888888
aF0.9259259259259259
aF0.8888888888888888
aF0.8518518518518519
aF0.9629629629629629
aF0.9259259259259259
aF0.9629629629629629
aF0.8518518518518519
aF0.8518518518518519
aF0.8888888888888888
aF0.8518518518518519
aF0.4444444444444444
aF0.8888888888888888
aF0.8518518518518519
aF0.9629629629629629
aF0.9259259259259259
aF0.4074074074074074
aF0.9259259259259259
aF0.8518518518518519
aF0.9629629629629629
aF0.9259259259259259
aF0.8518518518518519
aF0.8888888888888888
aF0.3333333333333333
aF0.8888888888888888
aF0.9629629629629629
aF0.8888888888888888
aF0.9629629629629629
aF0.7777777777777778
aF0.9259259259259259
aF0.9629629629629629
aF0.9259259259259259
assssS'start_percentage'
p128
F0.05
sS'end_percentage'
p129
F0.7
sS'vector_functions'
p130
(lp131
g14
ag11
ag17
ag7
asS'seed'
p132
F0.9861319870087797
s.