(dp0
S'percentages'
p1
(lp2
F0.02
aF0.04
aF0.06
aF0.08
aF0.1
aF0.12
aF0.14
aF0.16
aF0.18
aF0.2
aF0.22
aF0.24
aF0.26
aF0.28
aF0.3
aF0.32
aF0.34
aF0.36
aF0.38
aF0.4
aF0.42
aF0.44
aF0.46
aF0.48
aF0.5
aF0.52
aF0.54
aF0.56
aF0.58
asS'results'
p3
(lp4
(dp5
S'ide_dec'
p6
(dp7
S'recalls'
p8
(lp9
F0.35135135135135137
aF0.0
aF0.0
aF0.20270270270270271
aF0.0
asS'recall'
p10
F0.11081081081081082
ssS'rocchio'
p11
(dp12
g8
(lp13
F0.35135135135135137
aF0.0
aF0.0
aF0.0945945945945946
aF0.25675675675675674
asg10
F0.14054054054054052
ssS'ide_regular'
p14
(dp15
g8
(lp16
F0.06756756756756757
aF0.0
aF0.13513513513513514
aF0.06756756756756757
aF0.0
asg10
F0.05405405405405406
ssa(dp17
g6
(dp18
g8
(lp19
F0.3194444444444444
aF0.9027777777777778
aF0.9027777777777778
aF0.9166666666666666
aF0.9027777777777778
asg10
F0.7888888888888889
ssg11
(dp20
g8
(lp21
F0.3194444444444444
aF0.9027777777777778
aF0.9027777777777778
aF0.0
aF0.9027777777777778
asg10
F0.6055555555555555
ssg14
(dp22
g8
(lp23
F0.1111111111111111
aF0.1111111111111111
aF0.125
aF0.125
aF0.1388888888888889
asg10
F0.12222222222222223
ssa(dp24
g6
(dp25
g8
(lp26
F0.9014084507042254
aF0.9154929577464789
aF0.9014084507042254
aF0.9014084507042254
aF0.0
asg10
F0.723943661971831
ssg11
(dp27
g8
(lp28
F0.43661971830985913
aF0.9154929577464789
aF0.0
aF0.9295774647887324
aF0.22535211267605634
asg10
F0.5014084507042254
ssg14
(dp29
g8
(lp30
F0.14084507042253522
aF0.056338028169014086
aF0.15492957746478872
aF0.18309859154929578
aF0.14084507042253522
asg10
F0.1352112676056338
ssa(dp31
g6
(dp32
g8
(lp33
F0.8985507246376812
aF0.8985507246376812
aF0.8985507246376812
aF0.8985507246376812
aF0.9130434782608695
asg10
F0.9014492753623188
ssg11
(dp34
g8
(lp35
F0.8985507246376812
aF0.0
aF0.8985507246376812
aF0.8985507246376812
aF0.9130434782608695
asg10
F0.7217391304347827
ssg14
(dp36
g8
(lp37
F0.18840579710144928
aF0.13043478260869565
aF0.11594202898550725
aF0.2028985507246377
aF0.028985507246376812
asg10
F0.13333333333333333
ssa(dp38
g6
(dp39
g8
(lp40
F0.5441176470588235
aF0.9117647058823529
aF0.9117647058823529
aF0.4411764705882353
aF0.9264705882352942
asg10
F0.7470588235294118
ssg11
(dp41
g8
(lp42
F0.5441176470588235
aF0.5147058823529411
aF0.9117647058823529
aF0.4411764705882353
aF0.6617647058823529
asg10
F0.614705882352941
ssg14
(dp43
g8
(lp44
F0.20588235294117646
aF0.1323529411764706
aF0.10294117647058823
aF0.04411764705882353
aF0.19117647058823528
asg10
F0.13529411764705884
ssa(dp45
g6
(dp46
g8
(lp47
F0.8939393939393939
aF0.9090909090909091
aF0.8939393939393939
aF0.9242424242424242
aF0.9393939393939394
asg10
F0.9121212121212121
ssg11
(dp48
g8
(lp49
F0.8939393939393939
aF0.5303030303030303
aF0.8939393939393939
aF0.9242424242424242
aF0.3181818181818182
asg10
F0.7121212121212122
ssg14
(dp50
g8
(lp51
F0.13636363636363635
aF0.16666666666666666
aF0.10606060606060606
aF0.22727272727272727
aF0.25757575757575757
asg10
F0.17878787878787877
ssa(dp52
g6
(dp53
g8
(lp54
F0.9076923076923077
aF0.8923076923076924
aF0.9076923076923077
aF0.8923076923076924
aF0.9076923076923077
asg10
F0.9015384615384615
ssg11
(dp55
g8
(lp56
F0.0
aF0.8923076923076924
aF0.9076923076923077
aF0.9076923076923077
aF0.9076923076923077
asg10
F0.7230769230769231
ssg14
(dp57
g8
(lp58
F0.18461538461538463
aF0.16923076923076924
aF0.24615384615384617
aF0.13846153846153847
aF0.1076923076923077
asg10
F0.16923076923076924
ssa(dp59
g6
(dp60
g8
(lp61
F0.8888888888888888
aF0.9047619047619048
aF0.9047619047619048
aF0.9047619047619048
aF0.9206349206349206
asg10
F0.9047619047619048
ssg11
(dp62
g8
(lp63
F0.8888888888888888
aF0.9047619047619048
aF0.9047619047619048
aF0.9047619047619048
aF0.9206349206349206
asg10
F0.9047619047619048
ssg14
(dp64
g8
(lp65
F0.07936507936507936
aF0.1746031746031746
aF0.12698412698412698
aF0.15873015873015872
aF0.09523809523809523
asg10
F0.12698412698412698
ssa(dp66
g6
(dp67
g8
(lp68
F0.4838709677419355
aF0.9193548387096774
aF0.9032258064516129
aF0.9354838709677419
aF0.9032258064516129
asg10
F0.8290322580645162
ssg11
(dp69
g8
(lp70
F0.4838709677419355
aF0.41935483870967744
aF0.9032258064516129
aF0.9354838709677419
aF0.9032258064516129
asg10
F0.7290322580645162
ssg14
(dp71
g8
(lp72
F0.20967741935483872
aF0.12903225806451613
aF0.1935483870967742
aF0.1774193548387097
aF0.14516129032258066
asg10
F0.17096774193548386
ssa(dp73
g6
(dp74
g8
(lp75
F0.9333333333333333
aF0.9
aF0.9
aF0.9
aF0.9333333333333333
asg10
F0.9133333333333333
ssg11
(dp76
g8
(lp77
F0.9333333333333333
aF0.9
aF0.9333333333333333
aF0.9
aF0.9333333333333333
asg10
F0.9199999999999999
ssg14
(dp78
g8
(lp79
F0.18333333333333332
aF0.13333333333333333
aF0.23333333333333334
aF0.2
aF0.23333333333333334
asg10
F0.19666666666666668
ssa(dp80
g6
(dp81
g8
(lp82
F0.4067796610169492
aF0.8983050847457628
aF0.8983050847457628
aF0.8983050847457628
aF0.9152542372881356
asg10
F0.8033898305084748
ssg11
(dp83
g8
(lp84
F0.4067796610169492
aF0.5423728813559322
aF0.8983050847457628
aF0.8983050847457628
aF0.9152542372881356
asg10
F0.7322033898305085
ssg14
(dp85
g8
(lp86
F0.1694915254237288
aF0.15254237288135594
aF0.1694915254237288
aF0.1864406779661017
aF0.2033898305084746
asg10
F0.17627118644067796
ssa(dp87
g6
(dp88
g8
(lp89
F0.8947368421052632
aF0.9122807017543859
aF0.9122807017543859
aF0.9122807017543859
aF0.9298245614035088
asg10
F0.9122807017543859
ssg11
(dp90
g8
(lp91
F0.8947368421052632
aF0.9298245614035088
aF0.9122807017543859
aF0.9122807017543859
aF0.9298245614035088
asg10
F0.9157894736842105
ssg14
(dp92
g8
(lp93
F0.24561403508771928
aF0.24561403508771928
aF0.12280701754385964
aF0.19298245614035087
aF0.10526315789473684
asg10
F0.18245614035087715
ssa(dp94
g6
(dp95
g8
(lp96
F0.9107142857142857
aF0.5535714285714286
aF0.8928571428571429
aF0.8928571428571429
aF0.8928571428571429
asg10
F0.8285714285714286
ssg11
(dp97
g8
(lp98
F0.9107142857142857
aF0.5357142857142857
aF0.8928571428571429
aF0.8571428571428571
aF0.9107142857142857
asg10
F0.8214285714285715
ssg14
(dp99
g8
(lp100
F0.30357142857142855
aF0.21428571428571427
aF0.21428571428571427
aF0.21428571428571427
aF0.14285714285714285
asg10
F0.21785714285714283
ssa(dp101
g6
(dp102
g8
(lp103
F0.9074074074074074
aF0.8888888888888888
aF0.9074074074074074
aF0.9074074074074074
aF0.8888888888888888
asg10
F0.9
ssg11
(dp104
g8
(lp105
F0.9074074074074074
aF0.8888888888888888
aF0.9074074074074074
aF0.9074074074074074
aF0.8888888888888888
asg10
F0.9
ssg14
(dp106
g8
(lp107
F0.24074074074074073
aF0.0
aF0.24074074074074073
aF0.25925925925925924
aF0.2037037037037037
asg10
F0.18888888888888888
ssa(dp108
g6
(dp109
g8
(lp110
F0.9245283018867925
aF0.8867924528301887
aF0.9433962264150944
aF0.9056603773584906
aF0.9622641509433962
asg10
F0.9245283018867922
ssg11
(dp111
g8
(lp112
F0.9433962264150944
aF0.8867924528301887
aF0.9433962264150944
aF0.9056603773584906
aF0.9622641509433962
asg10
F0.9283018867924528
ssg14
(dp113
g8
(lp114
F0.22641509433962265
aF0.1509433962264151
aF0.2641509433962264
aF0.0
aF0.2830188679245283
asg10
F0.1849056603773585
ssa(dp115
g6
(dp116
g8
(lp117
F0.8823529411764706
aF0.8823529411764706
aF0.8823529411764706
aF0.8823529411764706
aF0.9411764705882353
asg10
F0.8941176470588236
ssg11
(dp118
g8
(lp119
F0.8823529411764706
aF0.8823529411764706
aF0.8823529411764706
aF0.8823529411764706
aF0.9411764705882353
asg10
F0.8941176470588236
ssg14
(dp120
g8
(lp121
F0.27450980392156865
aF0.19607843137254902
aF0.0392156862745098
aF0.2549019607843137
aF0.19607843137254902
asg10
F0.19215686274509802
ssa(dp122
g6
(dp123
g8
(lp124
F0.92
aF0.92
aF0.92
aF0.9
aF0.9
asg10
F0.9120000000000001
ssg11
(dp125
g8
(lp126
F0.92
aF0.92
aF0.92
aF0.9
aF0.9
asg10
F0.9120000000000001
ssg14
(dp127
g8
(lp128
F0.0
aF0.26
aF0.18
aF0.18
aF0.22
asg10
F0.16799999999999998
ssa(dp129
g6
(dp130
g8
(lp131
F0.8958333333333334
aF0.8958333333333334
aF0.9166666666666666
aF0.8958333333333334
aF0.8958333333333334
asg10
F0.9
ssg11
(dp132
g8
(lp133
F0.8958333333333334
aF0.8958333333333334
aF0.9583333333333334
aF0.8958333333333334
aF0.8958333333333334
asg10
F0.9083333333333334
ssg14
(dp134
g8
(lp135
F0.2708333333333333
aF0.25
aF0.3125
aF0.375
aF0.10416666666666667
asg10
F0.2625
ssa(dp136
g6
(dp137
g8
(lp138
F0.8936170212765957
aF0.9148936170212766
aF0.8936170212765957
aF0.8723404255319149
aF0.9574468085106383
asg10
F0.9063829787234041
ssg11
(dp139
g8
(lp140
F0.8936170212765957
aF0.9148936170212766
aF0.8936170212765957
aF0.8723404255319149
aF0.9574468085106383
asg10
F0.9063829787234041
ssg14
(dp141
g8
(lp142
F0.23404255319148937
aF0.3404255319148936
aF0.0
aF0.2765957446808511
aF0.2127659574468085
asg10
F0.21276595744680854
ssa(dp143
g6
(dp144
g8
(lp145
F0.8888888888888888
aF0.8888888888888888
aF0.8888888888888888
aF0.9333333333333333
aF0.8888888888888888
asg10
F0.8977777777777778
ssg11
(dp146
g8
(lp147
F0.8888888888888888
aF0.8888888888888888
aF0.8888888888888888
aF0.9333333333333333
aF0.8888888888888888
asg10
F0.8977777777777778
ssg14
(dp148
g8
(lp149
F0.0
aF0.13333333333333333
aF0.15555555555555556
aF0.4666666666666667
aF0.13333333333333333
asg10
F0.17777777777777776
ssa(dp150
g6
(dp151
g8
(lp152
F0.8863636363636364
aF0.9318181818181818
aF0.8863636363636364
aF0.9090909090909091
aF0.9545454545454546
asg10
F0.9136363636363637
ssg11
(dp153
g8
(lp154
F0.8863636363636364
aF0.9318181818181818
aF0.8863636363636364
aF0.9090909090909091
aF0.9545454545454546
asg10
F0.9136363636363637
ssg14
(dp155
g8
(lp156
F0.22727272727272727
aF0.38636363636363635
aF0.1590909090909091
aF0.22727272727272727
aF0.18181818181818182
asg10
F0.2363636363636364
ssa(dp157
g6
(dp158
g8
(lp159
F0.9047619047619048
aF0.9047619047619048
aF0.9047619047619048
aF0.9761904761904762
aF0.8809523809523809
asg10
F0.9142857142857143
ssg11
(dp160
g8
(lp161
F0.9047619047619048
aF0.9047619047619048
aF0.9047619047619048
aF0.9761904761904762
aF0.8809523809523809
asg10
F0.9142857142857143
ssg14
(dp162
g8
(lp163
F0.09523809523809523
aF0.0
aF0.0
aF0.38095238095238093
aF0.30952380952380953
asg10
F0.15714285714285714
ssa(dp164
g6
(dp165
g8
(lp166
F0.8536585365853658
aF0.8536585365853658
aF0.9024390243902439
aF0.926829268292683
aF0.8780487804878049
asg10
F0.8829268292682928
ssg11
(dp167
g8
(lp168
F0.8536585365853658
aF0.8536585365853658
aF0.9024390243902439
aF0.926829268292683
aF0.8780487804878049
asg10
F0.8829268292682928
ssg14
(dp169
g8
(lp170
F0.2926829268292683
aF0.24390243902439024
aF0.6829268292682927
aF0.24390243902439024
aF0.36585365853658536
asg10
F0.3658536585365854
ssa(dp171
g6
(dp172
g8
(lp173
F0.8717948717948718
aF0.8974358974358975
aF0.8717948717948718
aF0.8974358974358975
aF0.8974358974358975
asg10
F0.8871794871794872
ssg11
(dp174
g8
(lp175
F0.358974358974359
aF0.8974358974358975
aF0.8717948717948718
aF0.8974358974358975
aF0.8974358974358975
asg10
F0.7846153846153846
ssg14
(dp176
g8
(lp177
F0.41025641025641024
aF0.5384615384615384
aF0.38461538461538464
aF0.3076923076923077
aF0.358974358974359
asg10
F0.4
ssa(dp178
g6
(dp179
g8
(lp180
F0.9210526315789473
aF0.9473684210526315
aF0.9210526315789473
aF0.8947368421052632
aF0.868421052631579
asg10
F0.9105263157894736
ssg11
(dp181
g8
(lp182
F0.9210526315789473
aF0.9473684210526315
aF0.9210526315789473
aF0.8947368421052632
aF0.868421052631579
asg10
F0.9105263157894736
ssg14
(dp183
g8
(lp184
F0.10526315789473684
aF0.3684210526315789
aF0.21052631578947367
aF0.34210526315789475
aF0.868421052631579
asg10
F0.3789473684210526
ssa(dp185
g6
(dp186
g8
(lp187
F0.8611111111111112
aF0.9444444444444444
aF0.9444444444444444
aF0.8611111111111112
aF0.8888888888888888
asg10
F0.9
ssg11
(dp188
g8
(lp189
F0.8611111111111112
aF0.9444444444444444
aF0.9444444444444444
aF0.8611111111111112
aF0.8888888888888888
asg10
F0.9
ssg14
(dp190
g8
(lp191
F0.4166666666666667
aF0.5833333333333334
aF0.6388888888888888
aF0.5555555555555556
aF0.8888888888888888
asg10
F0.6166666666666667
ssa(dp192
g6
(dp193
g8
(lp194
F0.8857142857142857
aF0.8857142857142857
aF0.9428571428571428
aF0.9142857142857143
aF0.8857142857142857
asg10
F0.9028571428571428
ssg11
(dp195
g8
(lp196
F0.8857142857142857
aF0.8857142857142857
aF0.9428571428571428
aF0.9142857142857143
aF0.8857142857142857
asg10
F0.9028571428571428
ssg14
(dp197
g8
(lp198
F0.8857142857142857
aF0.5428571428571428
aF0.9428571428571428
aF0.9142857142857143
aF0.8857142857142857
asg10
F0.8342857142857142
ssa(dp199
g6
(dp200
g8
(lp201
F0.9393939393939394
aF0.8787878787878788
aF0.8484848484848485
aF0.8787878787878788
aF0.9393939393939394
asg10
F0.8969696969696971
ssg11
(dp202
g8
(lp203
F0.9393939393939394
aF0.8787878787878788
aF0.8484848484848485
aF0.8787878787878788
aF0.9393939393939394
asg10
F0.8969696969696971
ssg14
(dp204
g8
(lp205
F0.45454545454545453
aF0.9090909090909091
aF0.8484848484848485
aF0.24242424242424243
aF0.696969696969697
asg10
F0.6303030303030303
ssa(dp206
g6
(dp207
g8
(lp208
F0.90625
aF0.875
aF0.875
aF0.90625
aF0.875
asg10
F0.8875
ssg11
(dp209
g8
(lp210
F0.90625
aF0.875
aF0.875
aF0.90625
aF0.875
asg10
F0.8875
ssg14
(dp211
g8
(lp212
F0.90625
aF0.875
aF0.875
aF0.9375
aF0.875
asg10
F0.89375
ssas.