(dp0
F0.2
(dp1
F0.5
(dp2
F0.5
(dp3
S'recalls'
p4
(lp5
F0.9333333333333333
aF0.9
assF1.0
(dp6
g4
(lp7
F0.8833333333333333
aF0.8833333333333333
assF0.2
(dp8
g4
(lp9
F0.9166666666666666
aF0.8833333333333333
assF0.4
(dp10
g4
(lp11
F0.9166666666666666
aF0.8833333333333333
assF0.8
(dp12
g4
(lp13
F0.9166666666666666
aF0.8833333333333333
assF0.3
(dp14
g4
(lp15
F0.9166666666666666
aF0.9
assF0.6
(dp16
g4
(lp17
F0.9
aF0.9
assF0.1
(dp18
g4
(lp19
F0.9166666666666666
aF0.95
assF0.9
(dp20
g4
(lp21
F0.9
aF0.9166666666666666
assF0.7
(dp22
g4
(lp23
F0.9166666666666666
aF0.8833333333333333
asssF1.0
(dp24
F0.5
(dp25
g4
(lp26
F0.8833333333333333
aF0.9
assF1.0
(dp27
g4
(lp28
F0.9
aF0.9333333333333333
assF0.2
(dp29
g4
(lp30
F0.9
aF0.8833333333333333
assF0.4
(dp31
g4
(lp32
F0.9166666666666666
aF0.8833333333333333
assF0.8
(dp33
g4
(lp34
F0.9166666666666666
aF0.43333333333333335
assF0.3
(dp35
g4
(lp36
F0.9166666666666666
aF0.9
assF0.6
(dp37
g4
(lp38
F0.9166666666666666
aF0.8833333333333333
assF0.1
(dp39
g4
(lp40
F0.8833333333333333
aF0.9166666666666666
assF0.9
(dp41
g4
(lp42
F0.9
aF0.8833333333333333
assF0.7
(dp43
g4
(lp44
F0.9166666666666666
aF0.9
asssF0.2
(dp45
F0.5
(dp46
g4
(lp47
F0.9
aF0.9
assF1.0
(dp48
g4
(lp49
F0.9
aF0.9166666666666666
assF0.2
(dp50
g4
(lp51
F0.9
aF0.9
assF0.4
(dp52
g4
(lp53
F0.9
aF0.9
assF0.8
(dp54
g4
(lp55
F0.9
aF0.9166666666666666
assF0.3
(dp56
g4
(lp57
F0.9333333333333333
aF0.8833333333333333
assF0.6
(dp58
g4
(lp59
F0.9
aF0.9333333333333333
assF0.1
(dp60
g4
(lp61
F0.95
aF0.9333333333333333
assF0.9
(dp62
g4
(lp63
F0.8833333333333333
aF0.9
assF0.7
(dp64
g4
(lp65
F0.9
aF0.9333333333333333
asssF0.4
(dp66
F0.5
(dp67
g4
(lp68
F0.9
aF0.9
assF1.0
(dp69
g4
(lp70
F0.9333333333333333
aF0.9
assF0.2
(dp71
g4
(lp72
F0.9
aF0.9
assF0.4
(dp73
g4
(lp74
F0.9
aF0.9
assF0.8
(dp75
g4
(lp76
F0.9166666666666666
aF0.9
assF0.3
(dp77
g4
(lp78
F0.9
aF0.9333333333333333
assF0.6
(dp79
g4
(lp80
F0.9
aF0.9166666666666666
assF0.1
(dp81
g4
(lp82
F0.9
aF0.8833333333333333
assF0.9
(dp83
g4
(lp84
F0.5166666666666667
aF0.9
assF0.7
(dp85
g4
(lp86
F0.9166666666666666
aF0.9
asssF0.8
(dp87
F0.5
(dp88
g4
(lp89
F0.8833333333333333
aF0.9333333333333333
assF1.0
(dp90
g4
(lp91
F0.9166666666666666
aF0.9
assF0.2
(dp92
g4
(lp93
F0.9
aF0.9333333333333333
assF0.4
(dp94
g4
(lp95
F0.9
aF0.9
assF0.8
(dp96
g4
(lp97
F0.9
aF0.9
assF0.3
(dp98
g4
(lp99
F0.9333333333333333
aF0.9166666666666666
assF0.6
(dp100
g4
(lp101
F0.9166666666666666
aF0.9333333333333333
assF0.1
(dp102
g4
(lp103
F0.8833333333333333
aF0.9166666666666666
assF0.9
(dp104
g4
(lp105
F0.8833333333333333
aF0.9
assF0.7
(dp106
g4
(lp107
F0.9166666666666666
aF0.9166666666666666
asssF0.3
(dp108
F0.5
(dp109
g4
(lp110
F0.9166666666666666
aF0.8833333333333333
assF1.0
(dp111
g4
(lp112
F0.9
aF0.9
assF0.2
(dp113
g4
(lp114
F0.9
aF0.9
assF0.4
(dp115
g4
(lp116
F0.9166666666666666
aF0.9166666666666666
assF0.8
(dp117
g4
(lp118
F0.9166666666666666
aF0.9
assF0.3
(dp119
g4
(lp120
F0.9
aF0.9333333333333333
assF0.6
(dp121
g4
(lp122
F0.9166666666666666
aF0.9
assF0.1
(dp123
g4
(lp124
F0.8833333333333333
aF0.9166666666666666
assF0.9
(dp125
g4
(lp126
F0.9
aF0.9333333333333333
assF0.7
(dp127
g4
(lp128
F0.8833333333333333
aF0.9166666666666666
asssF0.6
(dp129
F0.5
(dp130
g4
(lp131
F0.9
aF0.9
assF1.0
(dp132
g4
(lp133
F0.9333333333333333
aF0.8833333333333333
assF0.2
(dp134
g4
(lp135
F0.9166666666666666
aF0.8833333333333333
assF0.4
(dp136
g4
(lp137
F0.8833333333333333
aF0.9333333333333333
assF0.8
(dp138
g4
(lp139
F0.9166666666666666
aF0.9166666666666666
assF0.3
(dp140
g4
(lp141
F0.9
aF0.55
assF0.6
(dp142
g4
(lp143
F0.95
aF0.9166666666666666
assF0.1
(dp144
g4
(lp145
F0.9
aF0.8833333333333333
assF0.9
(dp146
g4
(lp147
F0.9
aF0.95
assF0.7
(dp148
g4
(lp149
F0.9166666666666666
aF0.9
asssF0.1
(dp150
F0.5
(dp151
g4
(lp152
F0.8833333333333333
aF0.95
assF1.0
(dp153
g4
(lp154
F0.9166666666666666
aF0.95
assF0.2
(dp155
g4
(lp156
F0.8833333333333333
aF0.9166666666666666
assF0.4
(dp157
g4
(lp158
F0.9166666666666666
aF0.9666666666666667
assF0.8
(dp159
g4
(lp160
F0.9333333333333333
aF0.8833333333333333
assF0.3
(dp161
g4
(lp162
F0.9166666666666666
aF0.9166666666666666
assF0.6
(dp163
g4
(lp164
F0.9166666666666666
aF0.9333333333333333
assF0.1
(dp165
g4
(lp166
F0.8833333333333333
aF0.9166666666666666
assF0.9
(dp167
g4
(lp168
F0.9333333333333333
aF0.8833333333333333
assF0.7
(dp169
g4
(lp170
F0.9
aF0.9166666666666666
asssF0.9
(dp171
F0.5
(dp172
g4
(lp173
F0.9166666666666666
aF0.9
assF1.0
(dp174
g4
(lp175
F0.55
aF0.8833333333333333
assF0.2
(dp176
g4
(lp177
F0.9
aF0.8833333333333333
assF0.4
(dp178
g4
(lp179
F0.8833333333333333
aF0.9
assF0.8
(dp180
g4
(lp181
F0.43333333333333335
aF0.95
assF0.3
(dp182
g4
(lp183
F0.9333333333333333
aF0.9
assF0.6
(dp184
g4
(lp185
F0.9333333333333333
aF0.9
assF0.1
(dp186
g4
(lp187
F0.9333333333333333
aF0.8833333333333333
assF0.9
(dp188
g4
(lp189
F0.9333333333333333
aF0.8833333333333333
assF0.7
(dp190
g4
(lp191
F0.9166666666666666
aF0.9166666666666666
asssF0.7
(dp192
F0.5
(dp193
g4
(lp194
F0.8833333333333333
aF0.9
assF1.0
(dp195
g4
(lp196
F0.95
aF0.9
assF0.2
(dp197
g4
(lp198
F0.9
aF0.8833333333333333
assF0.4
(dp199
g4
(lp200
F0.95
aF0.9
assF0.8
(dp201
g4
(lp202
F0.9166666666666666
aF0.9
assF0.3
(dp203
g4
(lp204
F0.8833333333333333
aF0.8833333333333333
assF0.6
(dp205
g4
(lp206
F0.9166666666666666
aF0.9
assF0.1
(dp207
g4
(lp208
F0.9166666666666666
aF0.9333333333333333
assF0.9
(dp209
g4
(lp210
F0.9
aF0.9
assF0.7
(dp211
g4
(lp212
F0.9166666666666666
aF0.9166666666666666
assssF0.1
(dp213
F0.5
(dp214
F0.5
(dp215
g4
(lp216
F0.5588235294117647
aF0.9117647058823529
assF1.0
(dp217
g4
(lp218
F0.9117647058823529
aF0.9264705882352942
assF0.2
(dp219
g4
(lp220
F0.9264705882352942
aF0.8970588235294118
assF0.4
(dp221
g4
(lp222
F0.9411764705882353
aF0.9117647058823529
assF0.8
(dp223
g4
(lp224
F0.25
aF0.9117647058823529
assF0.3
(dp225
g4
(lp226
F0.9117647058823529
aF0.8970588235294118
assF0.6
(dp227
g4
(lp228
F0.9411764705882353
aF0.36764705882352944
assF0.1
(dp229
g4
(lp230
F0.8970588235294118
aF0.8970588235294118
assF0.9
(dp231
g4
(lp232
F0.0
aF0.2647058823529412
assF0.7
(dp233
g4
(lp234
F0.9117647058823529
aF0.8970588235294118
asssF1.0
(dp235
F0.5
(dp236
g4
(lp237
F0.9117647058823529
aF0.8970588235294118
assF1.0
(dp238
g4
(lp239
F0.9117647058823529
aF0.9264705882352942
assF0.2
(dp240
g4
(lp241
F0.9117647058823529
aF0.9117647058823529
assF0.4
(dp242
g4
(lp243
F0.9264705882352942
aF0.9264705882352942
assF0.8
(dp244
g4
(lp245
F0.9411764705882353
aF0.8970588235294118
assF0.3
(dp246
g4
(lp247
F0.9117647058823529
aF0.9117647058823529
assF0.6
(dp248
g4
(lp249
F0.8970588235294118
aF0.8970588235294118
assF0.1
(dp250
g4
(lp251
F0.8970588235294118
aF0.9117647058823529
assF0.9
(dp252
g4
(lp253
F0.36764705882352944
aF0.8970588235294118
assF0.7
(dp254
g4
(lp255
F0.8970588235294118
aF0.8970588235294118
asssF0.2
(dp256
F0.5
(dp257
g4
(lp258
F0.8970588235294118
aF0.9117647058823529
assF1.0
(dp259
g4
(lp260
F0.9117647058823529
aF0.9117647058823529
assF0.2
(dp261
g4
(lp262
F0.9117647058823529
aF0.8970588235294118
assF0.4
(dp263
g4
(lp264
F0.8970588235294118
aF0.8970588235294118
assF0.8
(dp265
g4
(lp266
F0.8970588235294118
aF0.8970588235294118
assF0.3
(dp267
g4
(lp268
F0.9264705882352942
aF0.9117647058823529
assF0.6
(dp269
g4
(lp270
F0.9117647058823529
aF0.8970588235294118
assF0.1
(dp271
g4
(lp272
F0.8970588235294118
aF0.9117647058823529
assF0.9
(dp273
g4
(lp274
F0.9117647058823529
aF0.9117647058823529
assF0.7
(dp275
g4
(lp276
F0.8970588235294118
aF0.9117647058823529
asssF0.4
(dp277
F0.5
(dp278
g4
(lp279
F0.6176470588235294
aF0.9117647058823529
assF1.0
(dp280
g4
(lp281
F0.9117647058823529
aF0.8970588235294118
assF0.2
(dp282
g4
(lp283
F0.8970588235294118
aF0.8970588235294118
assF0.4
(dp284
g4
(lp285
F0.8676470588235294
aF0.8970588235294118
assF0.8
(dp286
g4
(lp287
F0.8970588235294118
aF0.9117647058823529
assF0.3
(dp288
g4
(lp289
F0.8970588235294118
aF0.9117647058823529
assF0.6
(dp290
g4
(lp291
F0.9117647058823529
aF0.9117647058823529
assF0.1
(dp292
g4
(lp293
F0.8970588235294118
aF0.8970588235294118
assF0.9
(dp294
g4
(lp295
F0.9117647058823529
aF0.9264705882352942
assF0.7
(dp296
g4
(lp297
F0.9264705882352942
aF0.36764705882352944
asssF0.8
(dp298
F0.5
(dp299
g4
(lp300
F0.9117647058823529
aF0.8970588235294118
assF1.0
(dp301
g4
(lp302
F0.22058823529411764
aF0.9117647058823529
assF0.2
(dp303
g4
(lp304
F0.9117647058823529
aF0.9117647058823529
assF0.4
(dp305
g4
(lp306
F0.9117647058823529
aF0.8823529411764706
assF0.8
(dp307
g4
(lp308
F0.9117647058823529
aF0.9117647058823529
assF0.3
(dp309
g4
(lp310
F0.4117647058823529
aF0.22058823529411764
assF0.6
(dp311
g4
(lp312
F0.8970588235294118
aF0.9264705882352942
assF0.1
(dp313
g4
(lp314
F0.8970588235294118
aF0.8970588235294118
assF0.9
(dp315
g4
(lp316
F0.8970588235294118
aF0.9264705882352942
assF0.7
(dp317
g4
(lp318
F0.8970588235294118
aF0.9264705882352942
asssF0.3
(dp319
F0.5
(dp320
g4
(lp321
F0.8970588235294118
aF0.9264705882352942
assF1.0
(dp322
g4
(lp323
F0.9117647058823529
aF0.8970588235294118
assF0.2
(dp324
g4
(lp325
F0.8970588235294118
aF0.8970588235294118
assF0.4
(dp326
g4
(lp327
F0.9264705882352942
aF0.9117647058823529
assF0.8
(dp328
g4
(lp329
F0.8970588235294118
aF0.8970588235294118
assF0.3
(dp330
g4
(lp331
F0.8970588235294118
aF0.9117647058823529
assF0.6
(dp332
g4
(lp333
F0.9117647058823529
aF0.9264705882352942
assF0.1
(dp334
g4
(lp335
F0.9117647058823529
aF0.9117647058823529
assF0.9
(dp336
g4
(lp337
F0.9117647058823529
aF0.8970588235294118
assF0.7
(dp338
g4
(lp339
F0.9117647058823529
aF0.8970588235294118
asssF0.6
(dp340
F0.5
(dp341
g4
(lp342
F0.9117647058823529
aF0.8970588235294118
assF1.0
(dp343
g4
(lp344
F0.9117647058823529
aF0.8970588235294118
assF0.2
(dp345
g4
(lp346
F0.8970588235294118
aF0.9117647058823529
assF0.4
(dp347
g4
(lp348
F0.8970588235294118
aF0.4852941176470588
assF0.8
(dp349
g4
(lp350
F0.8970588235294118
aF0.8970588235294118
assF0.3
(dp351
g4
(lp352
F0.8970588235294118
aF0.8970588235294118
assF0.6
(dp353
g4
(lp354
F0.9264705882352942
aF0.8970588235294118
assF0.1
(dp355
g4
(lp356
F0.8970588235294118
aF0.8970588235294118
assF0.9
(dp357
g4
(lp358
F0.9117647058823529
aF0.8970588235294118
assF0.7
(dp359
g4
(lp360
F0.8970588235294118
aF0.5441176470588235
asssF0.1
(dp361
F0.5
(dp362
g4
(lp363
F0.9117647058823529
aF0.9117647058823529
assF1.0
(dp364
g4
(lp365
F0.9117647058823529
aF0.9117647058823529
assF0.2
(dp366
g4
(lp367
F0.9264705882352942
aF0.8970588235294118
assF0.4
(dp368
g4
(lp369
F0.9264705882352942
aF0.8970588235294118
assF0.8
(dp370
g4
(lp371
F0.9117647058823529
aF0.8970588235294118
assF0.3
(dp372
g4
(lp373
F0.8970588235294118
aF0.8970588235294118
assF0.6
(dp374
g4
(lp375
F0.9117647058823529
aF0.8970588235294118
assF0.1
(dp376
g4
(lp377
F0.9117647058823529
aF0.9558823529411765
assF0.9
(dp378
g4
(lp379
F0.9411764705882353
aF0.8970588235294118
assF0.7
(dp380
g4
(lp381
F0.8970588235294118
aF0.8970588235294118
asssF0.9
(dp382
F0.5
(dp383
g4
(lp384
F0.8970588235294118
aF0.9411764705882353
assF1.0
(dp385
g4
(lp386
F0.9264705882352942
aF0.9117647058823529
assF0.2
(dp387
g4
(lp388
F0.38235294117647056
aF0.8970588235294118
assF0.4
(dp389
g4
(lp390
F0.9264705882352942
aF0.5735294117647058
assF0.8
(dp391
g4
(lp392
F0.9117647058823529
aF0.8970588235294118
assF0.3
(dp393
g4
(lp394
F0.9264705882352942
aF0.8970588235294118
assF0.6
(dp395
g4
(lp396
F0.9117647058823529
aF0.8970588235294118
assF0.1
(dp397
g4
(lp398
F0.5441176470588235
aF0.8970588235294118
assF0.9
(dp399
g4
(lp400
F0.8970588235294118
aF0.8970588235294118
assF0.7
(dp401
g4
(lp402
F0.9117647058823529
aF0.8970588235294118
asssF0.7
(dp403
F0.5
(dp404
g4
(lp405
F0.8970588235294118
aF0.9264705882352942
assF1.0
(dp406
g4
(lp407
F0.9117647058823529
aF0.9117647058823529
assF0.2
(dp408
g4
(lp409
F0.8970588235294118
aF0.9117647058823529
assF0.4
(dp410
g4
(lp411
F0.8970588235294118
aF0.8970588235294118
assF0.8
(dp412
g4
(lp413
F0.8970588235294118
aF0.8970588235294118
assF0.3
(dp414
g4
(lp415
F0.9117647058823529
aF0.9264705882352942
assF0.6
(dp416
g4
(lp417
F0.9117647058823529
aF0.8970588235294118
assF0.1
(dp418
g4
(lp419
F0.9117647058823529
aF0.9117647058823529
assF0.9
(dp420
g4
(lp421
F0.8970588235294118
aF0.9264705882352942
assF0.7
(dp422
g4
(lp423
F0.8970588235294118
aF0.8970588235294118
assss.