(dp0
S'testset'
p1
S'black_no_irrelevant'
p2
sS'results'
p3
(dp4
F0.25
(dp5
S'ide_dec'
p6
(dp7
S'recalls'
p8
(lp9
F0.8947368421052632
aF0.8947368421052632
asS'recall'
p10
F0.8947368421052632
ssS'rocchio'
p11
(dp12
g8
(lp13
F0.8947368421052632
aF0.8947368421052632
asg10
F0.8947368421052632
ssS'ide_regular'
p14
(dp15
g8
(lp16
F0.8947368421052632
aF0.8947368421052632
asg10
F0.8947368421052632
sssF0.5
(dp17
g6
(dp18
g8
(lp19
F0.8421052631578947
aF0.8947368421052632
asg10
F0.868421052631579
ssg11
(dp20
g8
(lp21
F0.8421052631578947
aF0.8947368421052632
asg10
F0.868421052631579
ssg14
(dp22
g8
(lp23
F0.8421052631578947
aF0.8947368421052632
asg10
F0.868421052631579
sssF0.1
(dp24
g6
(dp25
g8
(lp26
F0.9117647058823529
aF0.9117647058823529
asg10
F0.9117647058823529
ssg11
(dp27
g8
(lp28
F0.9117647058823529
aF0.9117647058823529
asg10
F0.9117647058823529
ssg14
(dp29
g8
(lp30
F0.9117647058823529
aF0.9117647058823529
asg10
F0.9117647058823529
sssF0.2
(dp31
g6
(dp32
g8
(lp33
F0.8833333333333333
aF0.9166666666666666
asg10
F0.8999999999999999
ssg11
(dp34
g8
(lp35
F0.8833333333333333
aF0.9166666666666666
asg10
F0.8999999999999999
ssg14
(dp36
g8
(lp37
F0.8833333333333333
aF0.9166666666666666
asg10
F0.8999999999999999
sssF0.15
(dp38
g6
(dp39
g8
(lp40
F0.890625
aF0.890625
asg10
F0.890625
ssg11
(dp41
g8
(lp42
F0.890625
aF0.890625
asg10
F0.890625
ssg14
(dp43
g8
(lp44
F0.890625
aF0.890625
asg10
F0.890625
sssF0.3
(dp45
g6
(dp46
g8
(lp47
F0.9056603773584906
aF0.9056603773584906
asg10
F0.9056603773584906
ssg11
(dp48
g8
(lp49
F0.9056603773584906
aF0.9056603773584906
asg10
F0.9056603773584906
ssg14
(dp50
g8
(lp51
F0.9056603773584906
aF0.9056603773584906
asg10
F0.9056603773584906
sssF0.4
(dp52
g6
(dp53
g8
(lp54
F0.8666666666666667
aF0.9333333333333333
asg10
F0.9
ssg11
(dp55
g8
(lp56
F0.8666666666666667
aF0.9333333333333333
asg10
F0.9
ssg14
(dp57
g8
(lp58
F0.8666666666666667
aF0.9333333333333333
asg10
F0.9
sssF0.45
(dp59
g6
(dp60
g8
(lp61
F0.8809523809523809
aF0.9523809523809523
asg10
F0.9166666666666666
ssg11
(dp62
g8
(lp63
F0.8809523809523809
aF0.9523809523809523
asg10
F0.9166666666666666
ssg14
(dp64
g8
(lp65
F0.8809523809523809
aF0.9523809523809523
asg10
F0.9166666666666666
sssF0.35
(dp66
g6
(dp67
g8
(lp68
F0.8979591836734694
aF0.9183673469387755
asg10
F0.9081632653061225
ssg11
(dp69
g8
(lp70
F0.8979591836734694
aF0.9183673469387755
asg10
F0.9081632653061225
ssg14
(dp71
g8
(lp72
F0.8979591836734694
aF0.9183673469387755
asg10
F0.9081632653061225
ssss.