(dp0
S'start_percentage'
p1
F0.05
sS'test_set'
p2
S'black'
p3
sS'step_percentage'
p4
F0.05
sS'results'
p5
(dp6
F0.25
(dp7
S'pseudo'
p8
(dp9
S'recalls'
p10
(lp11
F0.9122807017543859
aF0.9122807017543859
aF0.9122807017543859
aF0.8771929824561403
aF0.9122807017543859
aF0.9298245614035088
aF0.9122807017543859
aF0.9122807017543859
aF0.9122807017543859
aF0.8947368421052632
aF0.9122807017543859
aF0.9122807017543859
aF0.9122807017543859
aF0.9122807017543859
aF0.9122807017543859
aF0.8947368421052632
aF0.8947368421052632
aF0.9473684210526315
aF0.8771929824561403
aF0.9122807017543859
aF0.9298245614035088
aF0.9298245614035088
aF0.8947368421052632
aF0.9122807017543859
aF0.8947368421052632
asS'recall'
p12
F0.9094736842105264
ssS'ide_dec'
p13
(dp14
g10
(lp15
F0.9122807017543859
aF0.9122807017543859
aF0.9122807017543859
aF0.8771929824561403
aF0.9122807017543859
aF0.9298245614035088
aF0.9122807017543859
aF0.9122807017543859
aF0.9122807017543859
aF0.8947368421052632
aF0.9122807017543859
aF0.9122807017543859
aF0.9122807017543859
aF0.9122807017543859
aF0.9122807017543859
aF0.8947368421052632
aF0.8947368421052632
aF0.9473684210526315
aF0.8771929824561403
aF0.9122807017543859
aF0.9298245614035088
aF0.9298245614035088
aF0.8947368421052632
aF0.9122807017543859
aF0.8947368421052632
asg12
F0.9094736842105264
ssS'rocchio'
p16
(dp17
g10
(lp18
F0.9122807017543859
aF0.9122807017543859
aF0.9122807017543859
aF0.8771929824561403
aF0.9122807017543859
aF0.08771929824561403
aF0.9122807017543859
aF0.9122807017543859
aF0.9122807017543859
aF0.8947368421052632
aF0.49122807017543857
aF0.543859649122807
aF0.9122807017543859
aF0.9122807017543859
aF0.9122807017543859
aF0.8947368421052632
aF0.8947368421052632
aF0.0
aF0.8771929824561403
aF0.9122807017543859
aF0.9298245614035088
aF0.9298245614035088
aF0.8947368421052632
aF0.9122807017543859
aF0.9122807017543859
asg12
F0.8070175438596492
ssS'ide_regular'
p19
(dp20
g10
(lp21
F0.15789473684210525
aF0.24561403508771928
aF0.08771929824561403
aF0.22807017543859648
aF0.15789473684210525
aF0.08771929824561403
aF0.21052631578947367
aF0.14035087719298245
aF0.14035087719298245
aF0.08771929824561403
aF0.17543859649122806
aF0.24561403508771928
aF0.2807017543859649
aF0.2807017543859649
aF0.2807017543859649
aF0.24561403508771928
aF0.2631578947368421
aF0.2982456140350877
aF0.10526315789473684
aF0.22807017543859648
aF0.21052631578947367
aF0.2631578947368421
aF0.2631578947368421
aF0.22807017543859648
aF0.19298245614035087
asg12
F0.20421052631578948
sssF0.5
(dp22
g8
(dp23
g10
(lp24
F0.868421052631579
aF0.9210526315789473
aF0.9473684210526315
aF0.8947368421052632
aF0.8947368421052632
aF0.9473684210526315
aF0.8947368421052632
aF0.868421052631579
aF0.9473684210526315
aF0.9210526315789473
aF0.9736842105263158
aF0.8947368421052632
aF0.9210526315789473
aF0.9210526315789473
aF0.9210526315789473
aF0.8421052631578947
aF0.9210526315789473
aF0.9210526315789473
aF0.9210526315789473
aF0.8947368421052632
aF0.8947368421052632
aF0.9473684210526315
aF0.8947368421052632
aF0.8947368421052632
aF0.8947368421052632
asg12
F0.9105263157894737
ssg13
(dp25
g10
(lp26
F0.868421052631579
aF0.9210526315789473
aF0.9473684210526315
aF0.8947368421052632
aF0.8947368421052632
aF0.9473684210526315
aF0.8947368421052632
aF0.868421052631579
aF0.9473684210526315
aF0.9210526315789473
aF0.9736842105263158
aF0.8947368421052632
aF0.9210526315789473
aF0.9210526315789473
aF0.9210526315789473
aF0.8421052631578947
aF0.9210526315789473
aF0.9210526315789473
aF0.9210526315789473
aF0.8947368421052632
aF0.8947368421052632
aF0.9473684210526315
aF0.8947368421052632
aF0.8947368421052632
aF0.8947368421052632
asg12
F0.9105263157894737
ssg16
(dp27
g10
(lp28
F0.868421052631579
aF0.9210526315789473
aF0.9473684210526315
aF0.8947368421052632
aF0.8947368421052632
aF0.9473684210526315
aF0.8947368421052632
aF0.868421052631579
aF0.9473684210526315
aF0.9210526315789473
aF0.9736842105263158
aF0.8947368421052632
aF0.9210526315789473
aF0.9210526315789473
aF0.9210526315789473
aF0.8421052631578947
aF0.9210526315789473
aF0.9210526315789473
aF0.9210526315789473
aF0.8947368421052632
aF0.8947368421052632
aF0.9473684210526315
aF0.9210526315789473
aF0.8947368421052632
aF0.8947368421052632
asg12
F0.911578947368421
ssg19
(dp29
g10
(lp30
F0.47368421052631576
aF0.0
aF0.39473684210526316
aF0.42105263157894735
aF0.2894736842105263
aF0.5263157894736842
aF0.3684210526315789
aF0.9210526315789473
aF0.5526315789473685
aF0.2894736842105263
aF0.6052631578947368
aF0.15789473684210525
aF0.7105263157894737
aF0.15789473684210525
aF0.9210526315789473
aF0.6842105263157895
aF0.34210526315789475
aF0.47368421052631576
aF0.15789473684210525
aF0.8947368421052632
aF0.8947368421052632
aF0.42105263157894735
aF0.7631578947368421
aF0.5
aF0.10526315789473684
asg12
F0.48105263157894734
sssF0.6
(dp31
g8
(dp32
g10
(lp33
F0.8333333333333334
aF0.9
aF0.9333333333333333
aF0.8666666666666667
aF0.8666666666666667
aF0.8
aF0.9333333333333333
aF0.9
aF0.9333333333333333
aF0.8666666666666667
aF0.9333333333333333
aF0.9
aF0.9333333333333333
aF0.8666666666666667
aF0.9
aF0.8666666666666667
aF0.9666666666666667
aF0.9666666666666667
aF0.9
aF0.9333333333333333
aF0.9666666666666667
aF0.9
aF0.9333333333333333
aF0.8
aF0.9333333333333333
asg12
F0.9013333333333332
ssg13
(dp34
g10
(lp35
F0.8333333333333334
aF0.9
aF0.9333333333333333
aF0.8666666666666667
aF0.8666666666666667
aF0.8
aF0.9333333333333333
aF0.9
aF0.9333333333333333
aF0.8666666666666667
aF0.9333333333333333
aF0.9
aF0.9333333333333333
aF0.8666666666666667
aF0.9
aF0.8666666666666667
aF0.9666666666666667
aF0.9666666666666667
aF0.9
aF0.9333333333333333
aF0.9666666666666667
aF0.9
aF0.9333333333333333
aF0.8
aF0.9333333333333333
asg12
F0.9013333333333332
ssg16
(dp36
g10
(lp37
F0.8333333333333334
aF0.9
aF0.9333333333333333
aF0.8666666666666667
aF0.8666666666666667
aF0.8
aF0.9333333333333333
aF0.9
aF0.9333333333333333
aF0.8666666666666667
aF0.9333333333333333
aF0.9
aF0.9333333333333333
aF0.8666666666666667
aF0.9
aF0.8666666666666667
aF0.9666666666666667
aF0.9666666666666667
aF0.9
aF0.9333333333333333
aF0.9666666666666667
aF0.9
aF0.9333333333333333
aF0.8
aF0.9333333333333333
asg12
F0.9013333333333332
ssg19
(dp38
g10
(lp39
F0.8333333333333334
aF0.9
aF0.3
aF0.9
aF0.8666666666666667
aF0.8
aF0.9333333333333333
aF0.9
aF0.9333333333333333
aF0.9
aF0.4
aF0.9
aF0.9333333333333333
aF0.8666666666666667
aF0.9
aF0.26666666666666666
aF0.9666666666666667
aF0.9666666666666667
aF0.9
aF0.9333333333333333
aF0.9666666666666667
aF0.9333333333333333
aF0.9333333333333333
aF0.8
aF0.9333333333333333
asg12
F0.8346666666666668
sssF0.1
(dp40
g8
(dp41
g10
(lp42
F0.8970588235294118
aF0.8970588235294118
aF0.9117647058823529
aF0.9117647058823529
aF0.9117647058823529
aF0.8970588235294118
aF0.9117647058823529
aF0.9117647058823529
aF0.9117647058823529
aF0.9117647058823529
aF0.8970588235294118
aF0.9264705882352942
aF0.9117647058823529
aF0.8970588235294118
aF0.9264705882352942
aF0.9117647058823529
aF0.9117647058823529
aF0.9264705882352942
aF0.8970588235294118
aF0.8970588235294118
aF0.8970588235294118
aF0.9117647058823529
aF0.9117647058823529
aF0.9264705882352942
aF0.8970588235294118
asg12
F0.9088235294117648
ssg13
(dp43
g10
(lp44
F0.8970588235294118
aF0.8970588235294118
aF0.9117647058823529
aF0.9117647058823529
aF0.9117647058823529
aF0.8970588235294118
aF0.9117647058823529
aF0.9117647058823529
aF0.9117647058823529
aF0.9117647058823529
aF0.8970588235294118
aF0.9264705882352942
aF0.9117647058823529
aF0.8970588235294118
aF0.9264705882352942
aF0.9117647058823529
aF0.9117647058823529
aF0.9264705882352942
aF0.8970588235294118
aF0.8970588235294118
aF0.9264705882352942
aF0.9117647058823529
aF0.9117647058823529
aF0.9264705882352942
aF0.8970588235294118
asg12
F0.91
ssg16
(dp45
g10
(lp46
F0.8970588235294118
aF0.8970588235294118
aF0.9117647058823529
aF0.9117647058823529
aF0.9117647058823529
aF0.8970588235294118
aF0.9117647058823529
aF0.5441176470588235
aF0.45588235294117646
aF0.39705882352941174
aF0.5882352941176471
aF0.9264705882352942
aF0.0
aF0.8970588235294118
aF0.0
aF0.9117647058823529
aF0.0
aF0.0
aF0.8970588235294118
aF0.8970588235294118
aF0.9264705882352942
aF0.9117647058823529
aF0.47058823529411764
aF0.22058823529411764
aF0.8970588235294118
asg12
F0.6511764705882352
ssg19
(dp47
g10
(lp48
F0.11764705882352941
aF0.11764705882352941
aF0.16176470588235295
aF0.14705882352941177
aF0.11764705882352941
aF0.17647058823529413
aF0.058823529411764705
aF0.10294117647058823
aF0.11764705882352941
aF0.11764705882352941
aF0.11764705882352941
aF0.14705882352941177
aF0.08823529411764706
aF0.14705882352941177
aF0.11764705882352941
aF0.14705882352941177
aF0.029411764705882353
aF0.1323529411764706
aF0.1323529411764706
aF0.1323529411764706
aF0.17647058823529413
aF0.14705882352941177
aF0.16176470588235295
aF0.20588235294117646
aF0.14705882352941177
asg12
F0.13058823529411762
sssF0.2
(dp49
g8
(dp50
g10
(lp51
F0.9166666666666666
aF0.9166666666666666
aF0.8833333333333333
aF0.9
aF0.9
aF0.9166666666666666
aF0.9166666666666666
aF0.9333333333333333
aF0.9
aF0.9
aF0.9
aF0.9333333333333333
aF0.9
aF0.9166666666666666
aF0.9333333333333333
aF0.9166666666666666
aF0.9166666666666666
aF0.9
aF0.9
aF0.9333333333333333
aF0.9
aF0.9
aF0.9166666666666666
aF0.9333333333333333
aF0.9
asg12
F0.9113333333333331
ssg13
(dp52
g10
(lp53
F0.9166666666666666
aF0.18333333333333332
aF0.8833333333333333
aF0.9
aF0.9
aF0.9166666666666666
aF0.9166666666666666
aF0.9333333333333333
aF0.9
aF0.9
aF0.9
aF0.5333333333333333
aF0.9
aF0.9166666666666666
aF0.9333333333333333
aF0.9166666666666666
aF0.9166666666666666
aF0.9
aF0.9
aF0.9333333333333333
aF0.9
aF0.9
aF0.9166666666666666
aF0.9333333333333333
aF0.9
asg12
F0.866
ssg16
(dp54
g10
(lp55
F0.95
aF0.2
aF0.9166666666666666
aF0.1
aF0.9166666666666666
aF0.9166666666666666
aF0.5
aF0.9333333333333333
aF0.9166666666666666
aF0.9333333333333333
aF0.9
aF0.5333333333333333
aF0.9166666666666666
aF0.5833333333333334
aF0.95
aF0.9166666666666666
aF0.9166666666666666
aF0.9
aF0.5
aF0.0
aF0.9
aF0.9
aF0.9333333333333333
aF0.9666666666666667
aF0.9
asg12
F0.7599999999999999
ssg19
(dp56
g10
(lp57
F0.25
aF0.11666666666666667
aF0.23333333333333334
aF0.1
aF0.11666666666666667
aF0.1
aF0.13333333333333333
aF0.05
aF0.18333333333333332
aF0.16666666666666666
aF0.21666666666666667
aF0.23333333333333334
aF0.2
aF0.2833333333333333
aF0.11666666666666667
aF0.21666666666666667
aF0.23333333333333334
aF0.13333333333333333
aF0.18333333333333332
aF0.26666666666666666
aF0.23333333333333334
aF0.2833333333333333
aF0.3
aF0.13333333333333333
aF0.16666666666666666
asg12
F0.18600000000000005
sssF0.4
(dp58
g8
(dp59
g10
(lp60
F0.8888888888888888
aF0.8888888888888888
aF0.9777777777777777
aF0.9111111111111111
aF0.8888888888888888
aF0.9111111111111111
aF0.9555555555555556
aF0.8666666666666667
aF0.9111111111111111
aF0.9333333333333333
aF0.9333333333333333
aF0.9555555555555556
aF0.8666666666666667
aF0.9111111111111111
aF0.9555555555555556
aF0.8888888888888888
aF0.9333333333333333
aF0.8888888888888888
aF0.8888888888888888
aF0.9111111111111111
aF0.9111111111111111
aF0.9333333333333333
aF0.8666666666666667
aF0.8666666666666667
aF0.8888888888888888
asg12
F0.9093333333333335
ssg13
(dp61
g10
(lp62
F0.8888888888888888
aF0.8888888888888888
aF0.9777777777777777
aF0.9111111111111111
aF0.8888888888888888
aF0.9111111111111111
aF0.9555555555555556
aF0.8666666666666667
aF0.9111111111111111
aF0.9333333333333333
aF0.9333333333333333
aF0.9555555555555556
aF0.8666666666666667
aF0.9111111111111111
aF0.9555555555555556
aF0.8888888888888888
aF0.9333333333333333
aF0.8888888888888888
aF0.8888888888888888
aF0.9111111111111111
aF0.9111111111111111
aF0.9333333333333333
aF0.8666666666666667
aF0.8666666666666667
aF0.8888888888888888
asg12
F0.9093333333333335
ssg16
(dp63
g10
(lp64
F0.8888888888888888
aF0.8888888888888888
aF0.9777777777777777
aF0.9111111111111111
aF0.8888888888888888
aF0.9111111111111111
aF0.9555555555555556
aF0.8666666666666667
aF0.9111111111111111
aF0.9333333333333333
aF0.9777777777777777
aF0.9555555555555556
aF0.8666666666666667
aF0.9111111111111111
aF0.4222222222222222
aF0.8888888888888888
aF0.9333333333333333
aF0.8888888888888888
aF0.8888888888888888
aF0.9111111111111111
aF0.9111111111111111
aF0.9555555555555556
aF0.8666666666666667
aF0.8666666666666667
aF0.8888888888888888
asg12
F0.8906666666666669
ssg19
(dp65
g10
(lp66
F0.1111111111111111
aF0.06666666666666667
aF0.044444444444444446
aF0.2222222222222222
aF0.0
aF0.0
aF0.1111111111111111
aF0.2222222222222222
aF0.13333333333333333
aF0.4
aF0.3111111111111111
aF0.13333333333333333
aF0.08888888888888889
aF0.24444444444444444
aF0.13333333333333333
aF0.06666666666666667
aF0.17777777777777778
aF0.0
aF0.1111111111111111
aF0.06666666666666667
aF0.3333333333333333
aF0.3333333333333333
aF0.35555555555555557
aF0.06666666666666667
aF0.1111111111111111
asg12
F0.1537777777777778
sssF0.15
(dp67
g8
(dp68
g10
(lp69
F0.90625
aF0.890625
aF0.90625
aF0.90625
aF0.90625
aF0.90625
aF0.890625
aF0.890625
aF0.90625
aF0.90625
aF0.890625
aF0.90625
aF0.890625
aF0.90625
aF0.90625
aF0.90625
aF0.90625
aF0.921875
aF0.890625
aF0.890625
aF0.90625
aF0.890625
aF0.921875
aF0.90625
aF0.921875
asg12
F0.903125
ssg13
(dp70
g10
(lp71
F0.90625
aF0.890625
aF0.90625
aF0.90625
aF0.90625
aF0.90625
aF0.890625
aF0.921875
aF0.90625
aF0.90625
aF0.890625
aF0.90625
aF0.890625
aF0.90625
aF0.90625
aF0.90625
aF0.90625
aF0.921875
aF0.890625
aF0.890625
aF0.90625
aF0.890625
aF0.921875
aF0.90625
aF0.921875
asg12
F0.904375
ssg16
(dp72
g10
(lp73
F0.9375
aF0.890625
aF0.921875
aF0.921875
aF0.90625
aF0.421875
aF0.890625
aF0.921875
aF0.25
aF0.90625
aF0.890625
aF0.234375
aF0.921875
aF0.9375
aF0.90625
aF0.90625
aF0.46875
aF0.921875
aF0.890625
aF0.890625
aF0.90625
aF0.890625
aF0.921875
aF0.90625
aF0.0
asg12
F0.7825
ssg19
(dp74
g10
(lp75
F0.15625
aF0.140625
aF0.15625
aF0.234375
aF0.015625
aF0.171875
aF0.1875
aF0.203125
aF0.140625
aF0.09375
aF0.125
aF0.25
aF0.171875
aF0.171875
aF0.046875
aF0.109375
aF0.21875
aF0.125
aF0.09375
aF0.140625
aF0.109375
aF0.109375
aF0.09375
aF0.25
aF0.265625
asg12
F0.15125
sssF0.3
(dp76
g8
(dp77
g10
(lp78
F0.8867924528301887
aF0.8867924528301887
aF0.8679245283018868
aF0.9056603773584906
aF0.9056603773584906
aF0.8867924528301887
aF0.9056603773584906
aF0.9056603773584906
aF0.9056603773584906
aF0.9056603773584906
aF0.9056603773584906
aF0.8867924528301887
aF0.9245283018867925
aF0.9433962264150944
aF0.8679245283018868
aF0.8867924528301887
aF0.9245283018867925
aF0.9245283018867925
aF0.9622641509433962
aF0.8867924528301887
aF0.9433962264150944
aF0.9056603773584906
aF0.9433962264150944
aF0.9245283018867925
aF0.8867924528301887
asg12
F0.9071698113207546
ssg13
(dp79
g10
(lp80
F0.8867924528301887
aF0.8867924528301887
aF0.8679245283018868
aF0.9056603773584906
aF0.9056603773584906
aF0.8867924528301887
aF0.9056603773584906
aF0.9056603773584906
aF0.9056603773584906
aF0.9056603773584906
aF0.9056603773584906
aF0.8867924528301887
aF0.9245283018867925
aF0.9433962264150944
aF0.8679245283018868
aF0.8867924528301887
aF0.9245283018867925
aF0.9245283018867925
aF0.9622641509433962
aF0.8867924528301887
aF0.9433962264150944
aF0.9056603773584906
aF0.9433962264150944
aF0.9245283018867925
aF0.8867924528301887
asg12
F0.9071698113207546
ssg16
(dp81
g10
(lp82
F0.9245283018867925
aF0.8867924528301887
aF0.9056603773584906
aF0.9056603773584906
aF0.9056603773584906
aF0.8867924528301887
aF0.9056603773584906
aF0.9056603773584906
aF0.9056603773584906
aF0.9056603773584906
aF0.9056603773584906
aF0.8867924528301887
aF0.9245283018867925
aF0.9433962264150944
aF0.8679245283018868
aF0.8867924528301887
aF0.9245283018867925
aF0.9245283018867925
aF0.9622641509433962
aF0.8867924528301887
aF0.9433962264150944
aF0.9056603773584906
aF0.9433962264150944
aF0.9245283018867925
aF0.8867924528301887
asg12
F0.9101886792452828
ssg19
(dp83
g10
(lp84
F0.2641509433962264
aF0.20754716981132076
aF0.16981132075471697
aF0.11320754716981132
aF0.2830188679245283
aF0.2830188679245283
aF0.07547169811320754
aF0.18867924528301888
aF0.2830188679245283
aF0.07547169811320754
aF0.18867924528301888
aF0.11320754716981132
aF0.20754716981132076
aF0.2641509433962264
aF0.22641509433962265
aF0.2641509433962264
aF0.07547169811320754
aF0.0
aF0.11320754716981132
aF0.18867924528301888
aF0.18867924528301888
aF0.20754716981132076
aF0.07547169811320754
aF0.11320754716981132
aF0.24528301886792453
asg12
F0.17660377358490567
sssF0.05
(dp85
g8
(dp86
g10
(lp87
F0.9027777777777778
aF0.9027777777777778
aF0.9027777777777778
aF0.9027777777777778
aF0.9027777777777778
aF0.9166666666666666
aF0.9027777777777778
aF0.9166666666666666
aF0.9166666666666666
aF0.9027777777777778
aF0.9027777777777778
aF0.9027777777777778
aF0.9027777777777778
aF0.9166666666666666
aF0.9027777777777778
aF0.9027777777777778
aF0.9027777777777778
aF0.9166666666666666
aF0.9027777777777778
aF0.9027777777777778
aF0.9027777777777778
aF0.9166666666666666
aF0.9166666666666666
aF0.9166666666666666
aF0.9027777777777778
asg12
F0.9072222222222227
ssg13
(dp88
g10
(lp89
F0.9027777777777778
aF0.3194444444444444
aF0.9027777777777778
aF0.9027777777777778
aF0.9027777777777778
aF0.3611111111111111
aF0.3194444444444444
aF0.4305555555555556
aF0.0
aF0.9027777777777778
aF0.9027777777777778
aF0.9027777777777778
aF0.9027777777777778
aF0.9166666666666666
aF0.3194444444444444
aF0.9027777777777778
aF0.9027777777777778
aF0.7777777777777778
aF0.9027777777777778
aF0.3611111111111111
aF0.9027777777777778
aF0.0
aF0.5833333333333334
aF0.2916666666666667
aF0.9027777777777778
asg12
F0.6566666666666667
ssg16
(dp90
g10
(lp91
F0.9027777777777778
aF0.3194444444444444
aF0.0
aF0.9027777777777778
aF0.0
aF0.2777777777777778
aF0.20833333333333334
aF0.3611111111111111
aF0.0
aF0.3888888888888889
aF0.0
aF0.9305555555555556
aF0.9027777777777778
aF0.0
aF0.1111111111111111
aF0.9027777777777778
aF0.9027777777777778
aF0.4722222222222222
aF0.9027777777777778
aF0.2916666666666667
aF0.0
aF0.0
aF0.125
aF0.2916666666666667
aF0.9027777777777778
asg12
F0.40388888888888885
ssg19
(dp92
g10
(lp93
F0.09722222222222222
aF0.125
aF0.1527777777777778
aF0.06944444444444445
aF0.1111111111111111
aF0.125
aF0.06944444444444445
aF0.1388888888888889
aF0.06944444444444445
aF0.1527777777777778
aF0.1527777777777778
aF0.20833333333333334
aF0.1527777777777778
aF0.125
aF0.16666666666666666
aF0.06944444444444445
aF0.1388888888888889
aF0.18055555555555555
aF0.125
aF0.06944444444444445
aF0.125
aF0.1111111111111111
aF0.1388888888888889
aF0.041666666666666664
aF0.19444444444444445
asg12
F0.12444444444444444
sssF0.45
(dp94
g8
(dp95
g10
(lp96
F0.9523809523809523
aF0.9047619047619048
aF0.9047619047619048
aF0.8809523809523809
aF0.8571428571428571
aF0.9285714285714286
aF0.9047619047619048
aF0.9285714285714286
aF0.8809523809523809
aF0.8333333333333334
aF0.9523809523809523
aF0.9047619047619048
aF0.9523809523809523
aF0.9047619047619048
aF0.9285714285714286
aF0.8333333333333334
aF0.9285714285714286
aF0.8809523809523809
aF0.9523809523809523
aF0.9047619047619048
aF0.8809523809523809
aF0.9285714285714286
aF0.9285714285714286
aF0.9285714285714286
aF0.9047619047619048
asg12
F0.9076190476190475
ssg13
(dp97
g10
(lp98
F0.9523809523809523
aF0.9047619047619048
aF0.9047619047619048
aF0.8809523809523809
aF0.8571428571428571
aF0.9285714285714286
aF0.9047619047619048
aF0.9285714285714286
aF0.8809523809523809
aF0.8333333333333334
aF0.9523809523809523
aF0.9047619047619048
aF0.9523809523809523
aF0.9047619047619048
aF0.9285714285714286
aF0.8333333333333334
aF0.9285714285714286
aF0.8809523809523809
aF0.9523809523809523
aF0.9047619047619048
aF0.8809523809523809
aF0.9285714285714286
aF0.9285714285714286
aF0.9285714285714286
aF0.9047619047619048
asg12
F0.9076190476190475
ssg16
(dp99
g10
(lp100
F0.9523809523809523
aF0.9047619047619048
aF0.9047619047619048
aF0.8809523809523809
aF0.8571428571428571
aF0.9285714285714286
aF0.9047619047619048
aF0.9285714285714286
aF0.8809523809523809
aF0.8333333333333334
aF0.9523809523809523
aF0.9047619047619048
aF0.9523809523809523
aF0.9047619047619048
aF0.9285714285714286
aF0.8333333333333334
aF0.9285714285714286
aF0.8809523809523809
aF0.9523809523809523
aF0.9047619047619048
aF0.8809523809523809
aF0.5238095238095238
aF0.9761904761904762
aF0.9285714285714286
aF0.5476190476190477
asg12
F0.8790476190476191
ssg19
(dp101
g10
(lp102
F0.11904761904761904
aF0.23809523809523808
aF0.0
aF0.30952380952380953
aF0.11904761904761904
aF0.11904761904761904
aF0.2857142857142857
aF0.11904761904761904
aF0.38095238095238093
aF0.23809523809523808
aF0.30952380952380953
aF0.3333333333333333
aF0.11904761904761904
aF0.0
aF0.5714285714285714
aF0.6666666666666666
aF0.0
aF0.0
aF0.09523809523809523
aF0.30952380952380953
aF0.21428571428571427
aF0.16666666666666666
aF0.21428571428571427
aF0.21428571428571427
aF0.14285714285714285
asg12
F0.21142857142857147
sssF0.35
(dp103
g8
(dp104
g10
(lp105
F0.8979591836734694
aF0.9387755102040817
aF0.9183673469387755
aF0.9183673469387755
aF0.8979591836734694
aF0.9183673469387755
aF0.8979591836734694
aF0.9183673469387755
aF0.8775510204081632
aF0.8979591836734694
aF0.9183673469387755
aF0.9183673469387755
aF0.8979591836734694
aF0.9183673469387755
aF0.9183673469387755
aF0.9183673469387755
aF0.9387755102040817
aF0.8979591836734694
aF0.8979591836734694
aF0.9387755102040817
aF0.9183673469387755
aF0.9591836734693877
aF0.8571428571428571
aF0.9387755102040817
aF0.8979591836734694
asg12
F0.9126530612244897
ssg13
(dp106
g10
(lp107
F0.8979591836734694
aF0.9387755102040817
aF0.9183673469387755
aF0.9183673469387755
aF0.8979591836734694
aF0.9183673469387755
aF0.8979591836734694
aF0.9183673469387755
aF0.8775510204081632
aF0.8979591836734694
aF0.9183673469387755
aF0.9183673469387755
aF0.8979591836734694
aF0.9183673469387755
aF0.9183673469387755
aF0.9183673469387755
aF0.9387755102040817
aF0.8979591836734694
aF0.8979591836734694
aF0.9387755102040817
aF0.9183673469387755
aF0.9591836734693877
aF0.8571428571428571
aF0.9387755102040817
aF0.8979591836734694
asg12
F0.9126530612244897
ssg16
(dp108
g10
(lp109
F0.8979591836734694
aF0.9387755102040817
aF0.9183673469387755
aF0.9183673469387755
aF0.8979591836734694
aF0.9183673469387755
aF0.8979591836734694
aF0.9183673469387755
aF0.8775510204081632
aF0.8979591836734694
aF0.9183673469387755
aF0.9183673469387755
aF0.8979591836734694
aF0.9183673469387755
aF0.9183673469387755
aF0.9183673469387755
aF0.9387755102040817
aF0.8979591836734694
aF0.8979591836734694
aF0.9387755102040817
aF0.9183673469387755
aF0.9591836734693877
aF0.8571428571428571
aF0.9387755102040817
aF0.8979591836734694
asg12
F0.9126530612244897
ssg19
(dp110
g10
(lp111
F0.22448979591836735
aF0.20408163265306123
aF0.30612244897959184
aF0.22448979591836735
aF0.2857142857142857
aF0.3469387755102041
aF0.22448979591836735
aF0.1836734693877551
aF0.20408163265306123
aF0.32653061224489793
aF0.16326530612244897
aF0.3673469387755102
aF0.1836734693877551
aF0.1836734693877551
aF0.0
aF0.14285714285714285
aF0.0
aF0.10204081632653061
aF0.16326530612244897
aF0.0
aF0.22448979591836735
aF0.14285714285714285
aF0.0
aF0.22448979591836735
aF0.2857142857142857
asg12
F0.18857142857142853
sssF0.55
(dp112
g8
(dp113
g10
(lp114
F0.9117647058823529
aF0.8823529411764706
aF0.8529411764705882
aF0.8235294117647058
aF0.9705882352941176
aF0.9411764705882353
aF0.8529411764705882
aF0.9117647058823529
aF0.9117647058823529
aF0.9117647058823529
aF0.8823529411764706
aF0.9117647058823529
aF0.9117647058823529
aF0.9411764705882353
aF0.9411764705882353
aF0.8823529411764706
aF0.9117647058823529
aF0.9117647058823529
aF0.9705882352941176
aF0.9117647058823529
aF0.8823529411764706
aF0.9117647058823529
aF0.9117647058823529
aF0.9117647058823529
aF0.9411764705882353
asg12
F0.9082352941176468
ssg13
(dp115
g10
(lp116
F0.9117647058823529
aF0.8823529411764706
aF0.8529411764705882
aF0.8235294117647058
aF0.9705882352941176
aF0.9411764705882353
aF0.8529411764705882
aF0.9117647058823529
aF0.9117647058823529
aF0.9117647058823529
aF0.8823529411764706
aF0.9117647058823529
aF0.9117647058823529
aF0.9411764705882353
aF0.9411764705882353
aF0.8823529411764706
aF0.9117647058823529
aF0.9117647058823529
aF0.9705882352941176
aF0.9117647058823529
aF0.8823529411764706
aF0.9117647058823529
aF0.9117647058823529
aF0.9117647058823529
aF0.9411764705882353
asg12
F0.9082352941176468
ssg16
(dp117
g10
(lp118
F0.9117647058823529
aF0.8823529411764706
aF0.8529411764705882
aF0.8235294117647058
aF0.9705882352941176
aF0.9411764705882353
aF0.8529411764705882
aF0.9117647058823529
aF0.9117647058823529
aF0.9117647058823529
aF0.8823529411764706
aF0.9117647058823529
aF0.9117647058823529
aF0.9411764705882353
aF0.9411764705882353
aF0.8823529411764706
aF0.9117647058823529
aF0.9117647058823529
aF0.9705882352941176
aF0.9117647058823529
aF0.8823529411764706
aF0.9117647058823529
aF0.9117647058823529
aF0.9117647058823529
aF0.9411764705882353
asg12
F0.9082352941176468
ssg19
(dp119
g10
(lp120
F0.29411764705882354
aF0.7941176470588235
aF0.6764705882352942
aF0.8235294117647058
aF0.29411764705882354
aF0.9411764705882353
aF0.8529411764705882
aF0.9117647058823529
aF0.9117647058823529
aF0.5882352941176471
aF0.9117647058823529
aF0.6470588235294118
aF0.35294117647058826
aF0.35294117647058826
aF0.9411764705882353
aF0.8823529411764706
aF0.8823529411764706
aF0.9411764705882353
aF0.4117647058823529
aF0.9117647058823529
aF0.8823529411764706
aF0.3235294117647059
aF0.6176470588235294
aF0.3235294117647059
aF0.9411764705882353
asg12
F0.6964705882352944
sssF0.65
(dp121
g8
(dp122
g10
(lp123
F0.9259259259259259
aF0.8888888888888888
aF0.8888888888888888
aF0.8888888888888888
aF0.9259259259259259
aF0.9259259259259259
aF0.9259259259259259
aF0.8888888888888888
aF0.9259259259259259
aF0.8148148148148148
aF0.9259259259259259
aF0.8888888888888888
aF0.8888888888888888
aF0.9629629629629629
aF0.8888888888888888
aF0.9259259259259259
aF0.9259259259259259
aF0.8148148148148148
aF0.9259259259259259
aF0.9259259259259259
aF0.9629629629629629
aF0.7777777777777778
aF0.8518518518518519
aF0.8148148148148148
aF0.9259259259259259
asg12
F0.8962962962962964
ssg13
(dp124
g10
(lp125
F0.9259259259259259
aF0.8888888888888888
aF0.8888888888888888
aF0.8888888888888888
aF0.9259259259259259
aF0.9259259259259259
aF0.9259259259259259
aF0.8888888888888888
aF0.9259259259259259
aF0.8148148148148148
aF0.9259259259259259
aF0.8888888888888888
aF0.8888888888888888
aF0.9629629629629629
aF0.8888888888888888
aF0.9259259259259259
aF0.9259259259259259
aF0.8148148148148148
aF0.9259259259259259
aF0.9259259259259259
aF0.9629629629629629
aF0.7777777777777778
aF0.8518518518518519
aF0.8148148148148148
aF0.9259259259259259
asg12
F0.8962962962962964
ssg16
(dp126
g10
(lp127
F0.9259259259259259
aF0.8888888888888888
aF0.8888888888888888
aF0.8888888888888888
aF0.9259259259259259
aF0.9259259259259259
aF0.9259259259259259
aF0.8888888888888888
aF0.9259259259259259
aF0.8148148148148148
aF0.9259259259259259
aF0.8888888888888888
aF0.8888888888888888
aF0.9629629629629629
aF0.8888888888888888
aF0.9259259259259259
aF0.9259259259259259
aF0.8148148148148148
aF0.9259259259259259
aF0.9259259259259259
aF0.9629629629629629
aF0.7777777777777778
aF0.8518518518518519
aF0.8148148148148148
aF0.9259259259259259
asg12
F0.8962962962962964
ssg19
(dp128
g10
(lp129
F0.9259259259259259
aF0.8888888888888888
aF0.8888888888888888
aF0.18518518518518517
aF0.48148148148148145
aF0.9259259259259259
aF0.9259259259259259
aF0.8888888888888888
aF0.9259259259259259
aF0.8148148148148148
aF0.9259259259259259
aF0.8888888888888888
aF0.8888888888888888
aF0.9629629629629629
aF0.8888888888888888
aF0.9259259259259259
aF0.9259259259259259
aF0.8148148148148148
aF0.37037037037037035
aF0.9259259259259259
aF0.14814814814814814
aF0.7777777777777778
aF0.8518518518518519
aF0.8148148148148148
aF0.9259259259259259
asg12
F0.7955555555555556
ssssS'seed'
p130
F0.1764348773121176
sS'end_percentage'
p131
F0.7
s.